
linx-qemu-tests.elf:	file format elf64-linx

Disassembly of section .text:

0000000000010000 <_start>:
   10000: 41 00 d5 0c  FENTRY	[ra ~ s2], sp!, 48
   10004: 00 08        C.BSTART.STD
   10006: 06 10        c.movr	zero,	->a0
   10008: 56 1b        c.movi	13,	->a1
   1000a: 96 58        c.movi	2,	->s0

000000000001000c <.LBB0_1>:
   1000c: 04 00        C.BSTART	COND, 0x1000c
   1000e: 35 af f1 0f  andiw	a1, 255,	->u
   10012: 97 0f 00 10  lui	65536,	->t
   10016: 59 20 8e 01  swi	u#1, [t#1, 0]
   1001a: 87 5f 00 00  addtpc	5,	->t
   1001e: 95 0f 9c 68  addi	t#1, 1673,	->t
   10022: 89 01 81 07  lb	[a0, t#1],	->a1
   10026: 15 01 11 00  addi	a0, 1,	->a0
   1002a: b6 58        c.setc.ne	a0, s0
   1002c: 00 08        C.BSTART.STD
   1002e: 35 02 d0 03  addiw	zero, 61,	->a2
   10032: 56 18        c.movi	1,	->a1
   10034: 15 01 20 03  addi	zero, 50,	->a0

0000000000010038 <.LBB0_3>:
   10038: 04 00        C.BSTART	COND, 0x10038
   1003a: 35 2f f2 0f  andiw	a2, 255,	->u
   1003e: 97 0f 00 10  lui	65536,	->t
   10042: 59 20 8e 01  swi	u#1, [t#1, 0]
   10046: 87 5f 00 00  addtpc	5,	->t
   1004a: 95 0f 4c 5a  addi	t#1, 1444,	->t
   1004e: 09 82 81 07  lb	[a1, t#1],	->a2
   10052: 95 81 11 00  addi	a1, 1,	->a1
   10056: f6 10        c.setc.ne	a1, a0
   10058: 00 08        C.BSTART.STD
   1005a: 35 02 00 02  addiw	zero, 32,	->a2
   1005e: 56 18        c.movi	1,	->a1
   10060: 15 06 40 02  addi	zero, 36,	->s1

0000000000010064 <.LBB0_5>:
   10064: 04 00        C.BSTART	COND, 0x10064
   10066: 35 2f f2 0f  andiw	a2, 255,	->u
   1006a: 97 0f 00 10  lui	65536,	->t
   1006e: 59 20 8e 01  swi	u#1, [t#1, 0]
   10072: 87 5f 00 00  addtpc	5,	->t
   10076: 95 0f 7c 6b  addi	t#1, 1719,	->t
   1007a: 09 82 81 07  lb	[a1, t#1],	->a2
   1007e: 95 81 11 00  addi	a1, 1,	->a1
   10082: f6 60        c.setc.ne	a1, s1
   10084: 00 08        C.BSTART.STD
   10086: 35 02 d0 03  addiw	zero, 61,	->a2
   1008a: 56 18        c.movi	1,	->a1

000000000001008c <.LBB0_7>:
   1008c: 04 00        C.BSTART	COND, 0x1008c
   1008e: 35 2f f2 0f  andiw	a2, 255,	->u
   10092: 97 0f 00 10  lui	65536,	->t
   10096: 59 20 8e 01  swi	u#1, [t#1, 0]
   1009a: 87 5f 00 00  addtpc	5,	->t
   1009e: 95 0f 4c 5a  addi	t#1, 1444,	->t
   100a2: 09 82 81 07  lb	[a1, t#1],	->a2
   100a6: 95 81 11 00  addi	a1, 1,	->a1
   100aa: f6 10        c.setc.ne	a1, a0
   100ac: 00 08        C.BSTART.STD
   100ae: 06 10        c.movr	zero,	->a0
   100b0: 56 1b        c.movi	13,	->a1

00000000000100b2 <.LBB0_9>:
   100b2: 04 00        C.BSTART	COND, 0x100b2
   100b4: 35 af f1 0f  andiw	a1, 255,	->u
   100b8: 97 0f 00 10  lui	65536,	->t
   100bc: 59 20 8e 01  swi	u#1, [t#1, 0]
   100c0: 87 5f 00 00  addtpc	5,	->t
   100c4: 95 0f 9c 68  addi	t#1, 1673,	->t
   100c8: 89 01 81 07  lb	[a0, t#1],	->a1
   100cc: 15 01 11 00  addi	a0, 1,	->a0
   100d0: b6 58        c.setc.ne	a0, s0
   100d2: 00 08        C.BSTART.STD
   100d4: 35 02 40 05  addiw	zero, 84,	->a2
   100d8: 56 10        c.movi	1,	->a0
   100da: 95 01 f0 01  addi	zero, 31,	->a1

00000000000100de <.LBB0_11>:
   100de: 04 00        C.BSTART	COND, 0x100de
   100e0: 35 2f f2 0f  andiw	a2, 255,	->u
   100e4: 97 0f 00 10  lui	65536,	->t
   100e8: 59 20 8e 01  swi	u#1, [t#1, 0]
   100ec: 87 5f 00 00  addtpc	5,	->t
   100f0: 95 0f 7c 62  addi	t#1, 1575,	->t
   100f4: 09 02 81 07  lb	[a0, t#1],	->a2
   100f8: 15 01 11 00  addi	a0, 1,	->a0
   100fc: b6 18        c.setc.ne	a0, a1
   100fe: 00 08        C.BSTART.STD
   10100: 35 02 30 05  addiw	zero, 83,	->a2
   10104: 56 10        c.movi	1,	->a0
   10106: 16 1a        c.movi	8,	->a1

0000000000010108 <.LBB0_13>:
   10108: 04 00        C.BSTART	COND, 0x10108
   1010a: 35 2f f2 0f  andiw	a2, 255,	->u
   1010e: 97 0f 00 10  lui	65536,	->t
   10112: 59 20 8e 01  swi	u#1, [t#1, 0]
   10116: 87 5f 00 00  addtpc	5,	->t
   1011a: 95 0f 6c 64  addi	t#1, 1606,	->t
   1011e: 09 02 81 07  lb	[a0, t#1],	->a2
   10122: 15 01 11 00  addi	a0, 1,	->a0
   10126: b6 18        c.setc.ne	a0, a1
   10128: 00 08        C.BSTART.STD
   1012a: 35 02 00 02  addiw	zero, 32,	->a2
   1012e: 56 10        c.movi	1,	->a0
   10130: d6 19        c.movi	7,	->a1

0000000000010132 <.LBB0_15>:
   10132: 04 00        C.BSTART	COND, 0x10132
   10134: 35 2f f2 0f  andiw	a2, 255,	->u
   10138: 97 0f 00 10  lui	65536,	->t
   1013c: 59 20 8e 01  swi	u#1, [t#1, 0]
   10140: 87 5f 00 00  addtpc	5,	->t
   10144: 95 0f ec 74  addi	t#1, 1870,	->t
   10148: 09 02 81 07  lb	[a0, t#1],	->a2
   1014c: 15 01 11 00  addi	a0, 1,	->a0
   10150: b6 18        c.setc.ne	a0, a1
   10152: 00 08        C.BSTART.STD
   10154: 06 10        c.movr	zero,	->a0
   10156: 56 1b        c.movi	13,	->a1

0000000000010158 <.LBB0_17>:
   10158: 04 00        C.BSTART	COND, 0x10158
   1015a: 35 af f1 0f  andiw	a1, 255,	->u
   1015e: 97 0f 00 10  lui	65536,	->t
   10162: 59 20 8e 01  swi	u#1, [t#1, 0]
   10166: 87 5f 00 00  addtpc	5,	->t
   1016a: 95 0f 9c 68  addi	t#1, 1673,	->t
   1016e: 89 01 81 07  lb	[a0, t#1],	->a1
   10172: 15 01 11 00  addi	a0, 1,	->a0
   10176: b6 58        c.setc.ne	a0, s0
   10178: 00 08        C.BSTART.STD
   1017a: 06 10        c.movr	zero,	->a0
   1017c: 56 1b        c.movi	13,	->a1

000000000001017e <.LBB0_19>:
   1017e: 04 00        C.BSTART	COND, 0x1017e
   10180: 35 af f1 0f  andiw	a1, 255,	->u
   10184: 97 0f 00 10  lui	65536,	->t
   10188: 59 20 8e 01  swi	u#1, [t#1, 0]
   1018c: 87 5f 00 00  addtpc	5,	->t
   10190: 95 0f 9c 68  addi	t#1, 1673,	->t
   10194: 89 01 81 07  lb	[a0, t#1],	->a1
   10198: 15 01 11 00  addi	a0, 1,	->a0
   1019c: b6 58        c.setc.ne	a0, s0
   1019e: 00 08        C.BSTART.STD
   101a0: b5 01 d0 03  addiw	zero, 61,	->a1
   101a4: 56 10        c.movi	1,	->a0
   101a6: 95 06 40 03  addi	zero, 52,	->s2

00000000000101aa <.LBB0_21>:
   101aa: 04 00        C.BSTART	COND, 0x101aa
   101ac: 35 af f1 0f  andiw	a1, 255,	->u
   101b0: 97 0f 00 10  lui	65536,	->t
   101b4: 59 20 8e 01  swi	u#1, [t#1, 0]
   101b8: 87 5f 00 00  addtpc	5,	->t
   101bc: 95 0f 0c 57  addi	t#1, 1392,	->t
   101c0: 89 01 81 07  lb	[a0, t#1],	->a1
   101c4: 15 01 11 00  addi	a0, 1,	->a0
   101c8: b6 68        c.setc.ne	a0, s2
   101ca: 00 08        C.BSTART.STD
   101cc: 56 f0        c.movi	1,	->u
   101ce: 0e 00 b9 2f 31 2b    hl.lw.pcr	[0x5662],	->t
   101d4: a5 0f cc 07  addw	t#1, u#1,	->t
   101d8: 0e 00 e9 22 8c 65    hl.sw.pcr	t#1, [0x5658]
   101de: 56 23        c.movi	13,	->a2
   101e0: 56 10        c.movi	1,	->a0
   101e2: d6 1a        c.movi	11,	->a1

00000000000101e4 <.LBB0_23>:
   101e4: 04 00        C.BSTART	COND, 0x101e4
   101e6: 35 2f f2 0f  andiw	a2, 255,	->u
   101ea: 97 0f 00 10  lui	65536,	->t
   101ee: 59 20 8e 01  swi	u#1, [t#1, 0]
   101f2: 87 5f 00 00  addtpc	5,	->t
   101f6: 95 0f 5c 65  addi	t#1, 1621,	->t
   101fa: 09 02 81 07  lb	[a0, t#1],	->a2
   101fe: 15 01 11 00  addi	a0, 1,	->a0
   10202: b6 18        c.setc.ne	a0, a1
   10204: 00 08        C.BSTART.STD
   10206: 35 02 60 04  addiw	zero, 70,	->a2
   1020a: 56 10        c.movi	1,	->a0
   1020c: 95 01 50 01  addi	zero, 21,	->a1

0000000000010210 <.LBB0_25>:
   10210: 04 00        C.BSTART	COND, 0x10210
   10212: 35 2f f2 0f  andiw	a2, 255,	->u
   10216: 97 0f 00 10  lui	65536,	->t
   1021a: 59 20 8e 01  swi	u#1, [t#1, 0]
   1021e: 87 5f 00 00  addtpc	5,	->t
   10222: 95 0f bc 60  addi	t#1, 1547,	->t
   10226: 09 02 81 07  lb	[a0, t#1],	->a2
   1022a: 15 01 11 00  addi	a0, 1,	->a0
   1022e: b6 18        c.setc.ne	a0, a1
   10230: 00 08        C.BSTART.STD
   10232: 35 02 e0 02  addiw	zero, 46,	->a2
   10236: 56 10        c.movi	1,	->a0
   10238: 96 19        c.movi	6,	->a1

000000000001023a <.LBB0_27>:
   1023a: 04 00        C.BSTART	COND, 0x1023a
   1023c: 35 2f f2 0f  andiw	a2, 255,	->u
   10240: 97 0f 00 10  lui	65536,	->t
   10244: 59 20 8e 01  swi	u#1, [t#1, 0]
   10248: 87 5f 00 00  addtpc	5,	->t
   1024c: 95 0f bc 7e  addi	t#1, 2027,	->t
   10250: 09 02 81 07  lb	[a0, t#1],	->a2
   10254: 15 01 11 00  addi	a0, 1,	->a0
   10258: b6 18        c.setc.ne	a0, a1
   1025a: 0e 00 01 c0 75 00 56 50      HL.BSTART.STD	CALL, 0x10430, ra=.LBB0_52

0000000000010262 <.LBB0_52>:
   10262: 00 08        C.BSTART.STD
   10264: 06 10        c.movr	zero,	->a0
   10266: 56 1b        c.movi	13,	->a1

0000000000010268 <.LBB0_29>:
   10268: 04 00        C.BSTART	COND, 0x10268
   1026a: 35 af f1 0f  andiw	a1, 255,	->u
   1026e: 97 0f 00 10  lui	65536,	->t
   10272: 59 20 8e 01  swi	u#1, [t#1, 0]
   10276: 87 5f 00 00  addtpc	5,	->t
   1027a: 95 0f 9c 68  addi	t#1, 1673,	->t
   1027e: 89 01 81 07  lb	[a0, t#1],	->a1
   10282: 15 01 11 00  addi	a0, 1,	->a0
   10286: b6 58        c.setc.ne	a0, s0
   10288: 00 08        C.BSTART.STD
   1028a: b5 01 d0 03  addiw	zero, 61,	->a1
   1028e: 56 10        c.movi	1,	->a0

0000000000010290 <.LBB0_31>:
   10290: 04 00        C.BSTART	COND, 0x10290
   10292: 35 af f1 0f  andiw	a1, 255,	->u
   10296: 97 0f 00 10  lui	65536,	->t
   1029a: 59 20 8e 01  swi	u#1, [t#1, 0]
   1029e: 87 5f 00 00  addtpc	5,	->t
   102a2: 95 0f 0c 57  addi	t#1, 1392,	->t
   102a6: 89 01 81 07  lb	[a0, t#1],	->a1
   102aa: 15 01 11 00  addi	a0, 1,	->a0
   102ae: b6 68        c.setc.ne	a0, s2
   102b0: 00 08        C.BSTART.STD
   102b2: b5 01 00 02  addiw	zero, 32,	->a1
   102b6: 56 10        c.movi	1,	->a0

00000000000102b8 <.LBB0_33>:
   102b8: 04 00        C.BSTART	COND, 0x102b8
   102ba: 35 af f1 0f  andiw	a1, 255,	->u
   102be: 97 0f 00 10  lui	65536,	->t
   102c2: 59 20 8e 01  swi	u#1, [t#1, 0]
   102c6: 87 5f 00 00  addtpc	5,	->t
   102ca: 95 0f bc 6d  addi	t#1, 1755,	->t
   102ce: 89 01 81 07  lb	[a0, t#1],	->a1
   102d2: 15 01 11 00  addi	a0, 1,	->a0
   102d6: b6 68        c.setc.ne	a0, s2
   102d8: 00 08        C.BSTART.STD
   102da: b5 01 d0 03  addiw	zero, 61,	->a1
   102de: 56 10        c.movi	1,	->a0

00000000000102e0 <.LBB0_35>:
   102e0: 04 00        C.BSTART	COND, 0x102e0
   102e2: 35 af f1 0f  andiw	a1, 255,	->u
   102e6: 97 0f 00 10  lui	65536,	->t
   102ea: 59 20 8e 01  swi	u#1, [t#1, 0]
   102ee: 87 5f 00 00  addtpc	5,	->t
   102f2: 95 0f 0c 57  addi	t#1, 1392,	->t
   102f6: 89 01 81 07  lb	[a0, t#1],	->a1
   102fa: 15 01 11 00  addi	a0, 1,	->a0
   102fe: b6 68        c.setc.ne	a0, s2
   10300: 00 08        C.BSTART.STD
   10302: 06 10        c.movr	zero,	->a0
   10304: 56 1b        c.movi	13,	->a1

0000000000010306 <.LBB0_37>:
   10306: 04 00        C.BSTART	COND, 0x10306
   10308: 35 af f1 0f  andiw	a1, 255,	->u
   1030c: 97 0f 00 10  lui	65536,	->t
   10310: 59 20 8e 01  swi	u#1, [t#1, 0]
   10314: 87 5f 00 00  addtpc	5,	->t
   10318: 95 0f 9c 68  addi	t#1, 1673,	->t
   1031c: 89 01 81 07  lb	[a0, t#1],	->a1
   10320: 15 01 11 00  addi	a0, 1,	->a0
   10324: b6 58        c.setc.ne	a0, s0
   10326: 00 08        C.BSTART.STD
   10328: b5 01 10 04  addiw	zero, 65,	->a1
   1032c: 56 10        c.movi	1,	->a0

000000000001032e <.LBB0_39>:
   1032e: 04 00        C.BSTART	COND, 0x1032e
   10330: 35 af f1 0f  andiw	a1, 255,	->u
   10334: 97 0f 00 10  lui	65536,	->t
   10338: 59 20 8e 01  swi	u#1, [t#1, 0]
   1033c: 87 5f 00 00  addtpc	5,	->t
   10340: 95 0f 6c 5d  addi	t#1, 1494,	->t
   10344: 89 01 81 07  lb	[a0, t#1],	->a1
   10348: 15 01 11 00  addi	a0, 1,	->a0
   1034c: b6 60        c.setc.ne	a0, s1
   1034e: 00 08        C.BSTART.STD
   10350: 06 10        c.movr	zero,	->a0
   10352: 56 1b        c.movi	13,	->a1

0000000000010354 <.LBB0_41>:
   10354: 04 00        C.BSTART	COND, 0x10354
   10356: 35 af f1 0f  andiw	a1, 255,	->u
   1035a: 97 0f 00 10  lui	65536,	->t
   1035e: 59 20 8e 01  swi	u#1, [t#1, 0]
   10362: 87 5f 00 00  addtpc	5,	->t
   10366: 95 0f 9c 68  addi	t#1, 1673,	->t
   1036a: 89 01 81 07  lb	[a0, t#1],	->a1
   1036e: 15 01 11 00  addi	a0, 1,	->a0
   10372: b6 58        c.setc.ne	a0, s0
   10374: 00 08        C.BSTART.STD
   10376: 35 02 e0 04  addiw	zero, 78,	->a2
   1037a: 56 10        c.movi	1,	->a0
   1037c: 95 01 70 03  addi	zero, 55,	->a1

0000000000010380 <.LBB0_43>:
   10380: 04 00        C.BSTART	COND, 0x10380
   10382: 35 2f f2 0f  andiw	a2, 255,	->u
   10386: 97 0f 00 10  lui	65536,	->t
   1038a: 59 20 8e 01  swi	u#1, [t#1, 0]
   1038e: 87 5f 00 00  addtpc	5,	->t
   10392: 95 0f 9c 79  addi	t#1, 1945,	->t
   10396: 09 02 81 07  lb	[a0, t#1],	->a2
   1039a: 15 01 11 00  addi	a0, 1,	->a0
   1039e: b6 18        c.setc.ne	a0, a1
   103a0: 00 08        C.BSTART.STD
   103a2: 35 02 00 02  addiw	zero, 32,	->a2
   103a6: 56 10        c.movi	1,	->a0
   103a8: 95 01 30 03  addi	zero, 51,	->a1

00000000000103ac <.LBB0_45>:
   103ac: 04 00        C.BSTART	COND, 0x103ac
   103ae: 35 2f f2 0f  andiw	a2, 255,	->u
   103b2: 97 0f 00 10  lui	65536,	->t
   103b6: 59 20 8e 01  swi	u#1, [t#1, 0]
   103ba: 87 5f 00 00  addtpc	5,	->t
   103be: 95 0f 6c 76  addi	t#1, 1894,	->t
   103c2: 09 02 81 07  lb	[a0, t#1],	->a2
   103c6: 15 01 11 00  addi	a0, 1,	->a0
   103ca: b6 18        c.setc.ne	a0, a1
   103cc: 00 08        C.BSTART.STD
   103ce: 06 10        c.movr	zero,	->a0
   103d0: 56 1b        c.movi	13,	->a1

00000000000103d2 <.LBB0_47>:
   103d2: 04 00        C.BSTART	COND, 0x103d2
   103d4: 35 af f1 0f  andiw	a1, 255,	->u
   103d8: 97 0f 00 10  lui	65536,	->t
   103dc: 59 20 8e 01  swi	u#1, [t#1, 0]
   103e0: 87 5f 00 00  addtpc	5,	->t
   103e4: 95 0f 9c 68  addi	t#1, 1673,	->t
   103e8: 89 01 81 07  lb	[a0, t#1],	->a1
   103ec: 15 01 11 00  addi	a0, 1,	->a0
   103f0: b6 58        c.setc.ne	a0, s0
   103f2: 00 08        C.BSTART.STD
   103f4: 35 02 a0 02  addiw	zero, 42,	->a2
   103f8: 56 10        c.movi	1,	->a0
   103fa: 95 01 c0 01  addi	zero, 28,	->a1

00000000000103fe <.LBB0_49>:
   103fe: 04 00        C.BSTART	COND, 0x103fe
   10400: 35 2f f2 0f  andiw	a2, 255,	->u
   10404: 97 0f 00 10  lui	65536,	->t
   10408: 59 20 8e 01  swi	u#1, [t#1, 0]
   1040c: 87 5f 00 00  addtpc	5,	->t
   10410: 95 0f 2c 73  addi	t#1, 1842,	->t
   10414: 09 02 81 07  lb	[a0, t#1],	->a2
   10418: 15 01 11 00  addi	a0, 1,	->a0
   1041c: b6 18        c.setc.ne	a0, a1
   1041e: 00 08        C.BSTART.STD
   10420: 0e 10 17 4f 00 00    hl.lui	268435460,	->u
   10426: 06 f8        c.movr	zero,	->t
   10428: 2a 07        c.swi	t#1, [u#1, 0]

000000000001042a <.LBB0_51>:
   1042a: 02 00        C.BSTART	DIRECT, 0x1042a
   1042c: 00 00        C.BSTOP
   1042e: 00 00        C.BSTOP

0000000000010430 <run_float_tests>:
   10430: 41 00 35 21  FENTRY	[ra ~ s8], sp!, 128
   10434: 00 08        C.BSTART.STD
   10436: 56 1b        c.movi	13,	->a1
   10438: 56 10        c.movi	1,	->a0
   1043a: 15 09 20 01  addi	zero, 18,	->s7

000000000001043e <.LBB0_1>:
   1043e: 04 00        C.BSTART	COND, 0x1043e
   10440: 35 af f1 0f  andiw	a1, 255,	->u
   10444: 97 0f 00 10  lui	65536,	->t
   10448: 59 20 8e 01  swi	u#1, [t#1, 0]
   1044c: 87 5f 00 00  addtpc	5,	->t
   10450: 95 0f 0c 66  addi	t#1, 1632,	->t
   10454: 89 01 81 07  lb	[a0, t#1],	->a1
   10458: 15 01 11 00  addi	a0, 1,	->a0
   1045c: b6 90        c.setc.ne	a0, s7
   1045e: 00 08        C.BSTART.STD
   10460: 06 10        c.movr	zero,	->a0
   10462: b5 01 00 03  addiw	zero, 48,	->a1
   10466: 96 68        c.movi	2,	->s2

0000000000010468 <.LBB0_3>:
   10468: 04 00        C.BSTART	COND, 0x10468
   1046a: 35 af f1 0f  andiw	a1, 255,	->u
   1046e: 97 0f 00 10  lui	65536,	->t
   10472: 59 20 8e 01  swi	u#1, [t#1, 0]
   10476: 87 5f 00 00  addtpc	5,	->t
   1047a: 95 0f cc 68  addi	t#1, 1676,	->t
   1047e: 89 01 81 07  lb	[a0, t#1],	->a1
   10482: 15 01 11 00  addi	a0, 1,	->a0
   10486: b6 68        c.setc.ne	a0, s2
   10488: 00 08        C.BSTART.STD
   1048a: 35 01 c0 01  addiw	zero, 28,	->a0
   1048e: 15 06 00 02  addi	zero, 32,	->s1
   10492: 16 77        c.movi	-4,	->s3
   10494: 16 7f        c.movi	-4,	->s4

0000000000010496 <.LBB0_5>:
   10496: 04 00        C.BSTART	COND, 0x10496
   10498: 85 7f c1 00  sll	a0, s1,	->t
   1049c: 05 5f cc 00  srl	t#1, s1,	->u
   104a0: 97 ff 00 00  lui	15,	->t
   104a4: a5 5f cc 01  srlw	t#1, u#1,	->t
   104a8: 15 2f fc 00  andi	t#1, 15,	->u
   104ac: 87 5f 00 00  addtpc	5,	->t
   104b0: 95 0f ac 5f  addi	t#1, 1530,	->t
   104b4: 09 4f 8e 07  lbu	[u#1, t#1],	->u
   104b8: 97 0f 00 10  lui	65536,	->t
   104bc: 59 20 8e 01  swi	u#1, [t#1, 0]
   104c0: 25 01 e1 06  addw	a0, s3,	->a0
   104c4: 9c 50        c.sext.w	a0,	->t
   104c6: 36 7e        c.setc.ne	t#1, s4
   104c8: 00 08        C.BSTART.STD
   104ca: b5 01 00 02  addiw	zero, 32,	->a1
   104ce: 56 10        c.movi	1,	->a0
   104d0: d6 81        c.movi	7,	->s5

00000000000104d2 <.LBB0_7>:
   104d2: 04 00        C.BSTART	COND, 0x104d2
   104d4: 35 af f1 0f  andiw	a1, 255,	->u
   104d8: 97 0f 00 10  lui	65536,	->t
   104dc: 59 20 8e 01  swi	u#1, [t#1, 0]
   104e0: 87 5f 00 00  addtpc	5,	->t
   104e4: 95 0f 0c 62  addi	t#1, 1568,	->t
   104e8: 89 01 81 07  lb	[a0, t#1],	->a1
   104ec: 15 01 11 00  addi	a0, 1,	->a0
   104f0: b6 80        c.setc.ne	a0, s5
   104f2: 00 08        C.BSTART.STD
   104f4: b5 01 00 02  addiw	zero, 32,	->a1
   104f8: 56 10        c.movi	1,	->a0
   104fa: 96 8a        c.movi	10,	->s6

00000000000104fc <.LBB0_9>:
   104fc: 04 00        C.BSTART	COND, 0x104fc
   104fe: 35 af f1 0f  andiw	a1, 255,	->u
   10502: 97 0f 00 10  lui	65536,	->t
   10506: 59 20 8e 01  swi	u#1, [t#1, 0]
   1050a: 87 5f 00 00  addtpc	5,	->t
   1050e: 95 0f 0c 7d  addi	t#1, 2000,	->t
   10512: 89 01 81 07  lb	[a0, t#1],	->a1
   10516: 15 01 11 00  addi	a0, 1,	->a0
   1051a: b6 88        c.setc.ne	a0, s6
   1051c: 00 08        C.BSTART.STD
   1051e: 35 01 c0 01  addiw	zero, 28,	->a0

0000000000010522 <.LBB0_11>:
   10522: 04 00        C.BSTART	COND, 0x10522
   10524: 85 7f c1 00  sll	a0, s1,	->t
   10528: 05 5f cc 00  srl	t#1, s1,	->u
   1052c: 0e 00 97 1f 00 0f    hl.lui	61441,	->t
   10532: a5 5f cc 01  srlw	t#1, u#1,	->t
   10536: 15 2f fc 00  andi	t#1, 15,	->u
   1053a: 87 5f 00 00  addtpc	5,	->t
   1053e: 95 0f ac 5f  addi	t#1, 1530,	->t
   10542: 09 4f 8e 07  lbu	[u#1, t#1],	->u
   10546: 97 0f 00 10  lui	65536,	->t
   1054a: 59 20 8e 01  swi	u#1, [t#1, 0]
   1054e: 25 01 e1 06  addw	a0, s3,	->a0
   10552: 9c 50        c.sext.w	a0,	->t
   10554: 36 7e        c.setc.ne	t#1, s4
   10556: 00 08        C.BSTART.STD
   10558: 06 10        c.movr	zero,	->a0
   1055a: b5 01 a0 03  addiw	zero, 58,	->a1

000000000001055e <.LBB0_13>:
   1055e: 04 00        C.BSTART	COND, 0x1055e
   10560: 35 af f1 0f  andiw	a1, 255,	->u
   10564: 97 0f 00 10  lui	65536,	->t
   10568: 59 20 8e 01  swi	u#1, [t#1, 0]
   1056c: 87 5f 00 00  addtpc	5,	->t
   10570: 95 0f bc 7d  addi	t#1, 2011,	->t
   10574: 89 01 81 07  lb	[a0, t#1],	->a1
   10578: 15 01 11 00  addi	a0, 1,	->a0
   1057c: b6 68        c.setc.ne	a0, s2
   1057e: 0e 00 01 40 8a 0f 07 65 02 00HL.BSTART.STD	CALL, 0x143a6, ra=.LBB0_428
   10588: fe 3f 17 01 00 80    hl.lui	1073217536,	->a0
   1058e: 05 71 c1 00  sll	a0, s1,	->a0
   10592: 0e 00 97 01 00 00    hl.lui	0,	->a1
   10598: 85 f1 c1 00  sll	a1, s1,	->a1
   1059c: 85 d1 c1 00  srl	a1, s1,	->a1
   105a0: 05 31 31 06  or	a0, a1,	->a0
   105a4: 59 30 11 0a  sdi	a0, [sp, 40]
   105a8: 0e 40 17 01 00 40    hl.lui	1074003968,	->a0
   105ae: 05 71 c1 00  sll	a0, s1,	->a0
   105b2: 05 31 31 06  or	a0, a1,	->a0
   105b6: 59 30 11 08  sdi	a0, [sp, 32]
   105ba: 1e 40 17 01 00 00    hl.lui	1074790400,	->a0
   105c0: 05 71 c1 00  sll	a0, s1,	->a0
   105c4: 85 39 31 06  or	a0, a1,	->s8
   105c8: 19 b1 50 00  ldi	[sp, 40],	->a0
   105cc: 99 b1 40 00  ldi	[sp, 32],	->a1

00000000000105d0 <.LBB0_428>:
   105d0: 54 02        C.BSTART	COND, 0x1061a
   105d2: 86 58        c.movr	a0,	->s0
   105d4: e6 9a        c.setc.eq	s0, s8
   105d6: 0e 00 01 40 74 0f d6 54      HL.BSTART.STD	CALL, 0x143a6, ra=.LBB0_427
   105de: fe 7f 17 f1 ff ff    hl.lui	2147483647,	->a0
   105e4: 05 71 c1 00  sll	a0, s1,	->a0
   105e8: fe ff 97 f1 ff ff    hl.lui	4294967295,	->a1
   105ee: 85 f1 c1 00  sll	a1, s1,	->a1
   105f2: 85 d1 c1 00  srl	a1, s1,	->a1
   105f6: 85 39 31 06  or	a0, a1,	->s8
   105fa: 0e 00 b9 61 fd 28    hl.lwu.pcr	[0x51fa],	->a1
   10600: c6 12        c.movr	s0,	->a0

0000000000010602 <.LBB0_427>:
   10602: 01 b0 e4 08  BSTART.STD	COND, 0x12994
   10606: 05 2f 31 07  and	a0, s8,	->u
   1060a: 0e 00 b9 3f 0f 29    hl.ld.pcr	[0x521e],	->t
   10610: db 2f cc 01  flt.fd	t#1, u#1,	->t
   10614: 95 4f 1c 00  xori	t#1, 1,	->t
   10618: 26 06        c.setc.eq	t#1, zero

000000000001061a <.LBB0_19>:
   1061a: 00 08        C.BSTART.STD
   1061c: b5 01 00 05  addiw	zero, 80,	->a1
   10620: 56 10        c.movi	1,	->a0

0000000000010622 <.LBB0_20>:
   10622: 04 00        C.BSTART	COND, 0x10622
   10624: 35 af f1 0f  andiw	a1, 255,	->u
   10628: 97 0f 00 10  lui	65536,	->t
   1062c: 59 20 8e 01  swi	u#1, [t#1, 0]
   10630: 87 5f 00 00  addtpc	5,	->t
   10634: 95 0f ec 64  addi	t#1, 1614,	->t
   10638: 89 01 81 07  lb	[a0, t#1],	->a1
   1063c: 15 01 11 00  addi	a0, 1,	->a0
   10640: b6 80        c.setc.ne	a0, s5
   10642: 00 08        C.BSTART.STD
   10644: b5 01 00 02  addiw	zero, 32,	->a1
   10648: 56 10        c.movi	1,	->a0

000000000001064a <.LBB0_22>:
   1064a: 04 00        C.BSTART	COND, 0x1064a
   1064c: 35 af f1 0f  andiw	a1, 255,	->u
   10650: 97 0f 00 10  lui	65536,	->t
   10654: 59 20 8e 01  swi	u#1, [t#1, 0]
   10658: 87 5f 00 00  addtpc	5,	->t
   1065c: 95 0f 0c 7d  addi	t#1, 2000,	->t
   10660: 89 01 81 07  lb	[a0, t#1],	->a1
   10664: 15 01 11 00  addi	a0, 1,	->a0
   10668: b6 88        c.setc.ne	a0, s6
   1066a: 00 08        C.BSTART.STD
   1066c: 35 01 c0 01  addiw	zero, 28,	->a0

0000000000010670 <.LBB0_24>:
   10670: 04 00        C.BSTART	COND, 0x10670
   10672: 85 7f c1 00  sll	a0, s1,	->t
   10676: 05 5f cc 00  srl	t#1, s1,	->u
   1067a: 0e 00 97 2f 00 0f    hl.lui	61442,	->t
   10680: a5 5f cc 01  srlw	t#1, u#1,	->t
   10684: 15 2f fc 00  andi	t#1, 15,	->u
   10688: 87 5f 00 00  addtpc	5,	->t
   1068c: 95 0f ac 5f  addi	t#1, 1530,	->t
   10690: 09 4f 8e 07  lbu	[u#1, t#1],	->u
   10694: 97 0f 00 10  lui	65536,	->t
   10698: 59 20 8e 01  swi	u#1, [t#1, 0]
   1069c: 25 01 e1 06  addw	a0, s3,	->a0
   106a0: 9c 50        c.sext.w	a0,	->t
   106a2: 36 7e        c.setc.ne	t#1, s4
   106a4: 00 08        C.BSTART.STD
   106a6: 06 10        c.movr	zero,	->a0
   106a8: b5 01 a0 03  addiw	zero, 58,	->a1

00000000000106ac <.LBB0_26>:
   106ac: 04 00        C.BSTART	COND, 0x106ac
   106ae: 35 af f1 0f  andiw	a1, 255,	->u
   106b2: 97 0f 00 10  lui	65536,	->t
   106b6: 59 20 8e 01  swi	u#1, [t#1, 0]
   106ba: 87 5f 00 00  addtpc	5,	->t
   106be: 95 0f bc 7d  addi	t#1, 2011,	->t
   106c2: 89 01 81 07  lb	[a0, t#1],	->a1
   106c6: 15 01 11 00  addi	a0, 1,	->a0
   106ca: b6 68        c.setc.ne	a0, s2
   106cc: 0e 00 01 c0 36 0f 07 65 02 00HL.BSTART.STD	CALL, 0x143a6, ra=.LBB0_426
   106d6: fe bf 17 01 00 80    hl.lui	3220701184,	->a0
   106dc: 05 71 c1 00  sll	a0, s1,	->a0
   106e0: 0e 00 97 01 00 00    hl.lui	0,	->a1
   106e6: 85 f1 c1 00  sll	a1, s1,	->a1
   106ea: 85 d1 c1 00  srl	a1, s1,	->a1
   106ee: 05 31 31 06  or	a0, a1,	->a0
   106f2: 59 30 11 0a  sdi	a0, [sp, 40]
   106f6: 0e 40 17 01 00 40    hl.lui	1074003968,	->a0
   106fc: 05 71 c1 00  sll	a0, s1,	->a0
   10700: 05 31 31 06  or	a0, a1,	->a0
   10704: 59 30 11 08  sdi	a0, [sp, 32]
   10708: fe 3f 17 01 00 00    hl.lui	1072693248,	->a0
   1070e: 05 71 c1 00  sll	a0, s1,	->a0
   10712: 85 39 31 06  or	a0, a1,	->s8
   10716: 19 b1 50 00  ldi	[sp, 40],	->a0
   1071a: 99 b1 40 00  ldi	[sp, 32],	->a1

000000000001071e <.LBB0_426>:
   1071e: 54 02        C.BSTART	COND, 0x10768
   10720: 86 58        c.movr	a0,	->s0
   10722: e6 9a        c.setc.eq	s0, s8
   10724: 0e 00 01 c0 20 0f d6 54      HL.BSTART.STD	CALL, 0x143a6, ra=.LBB0_425
   1072c: fe 7f 17 f1 ff ff    hl.lui	2147483647,	->a0
   10732: 05 71 c1 00  sll	a0, s1,	->a0
   10736: fe ff 97 f1 ff ff    hl.lui	4294967295,	->a1
   1073c: 85 f1 c1 00  sll	a1, s1,	->a1
   10740: 85 d1 c1 00  srl	a1, s1,	->a1
   10744: 85 39 31 06  or	a0, a1,	->s8
   10748: 0e 00 b9 61 62 28    hl.lwu.pcr	[0x50c4],	->a1
   1074e: c6 12        c.movr	s0,	->a0

0000000000010750 <.LBB0_425>:
   10750: 01 30 a6 08  BSTART.STD	COND, 0x129e8
   10754: 05 2f 31 07  and	a0, s8,	->u
   10758: 0e 00 b9 3f 68 28    hl.ld.pcr	[0x50d0],	->t
   1075e: db 2f cc 01  flt.fd	t#1, u#1,	->t
   10762: 95 4f 1c 00  xori	t#1, 1,	->t
   10766: 26 06        c.setc.eq	t#1, zero

0000000000010768 <.LBB0_32>:
   10768: 00 08        C.BSTART.STD
   1076a: b5 01 00 05  addiw	zero, 80,	->a1
   1076e: 56 10        c.movi	1,	->a0

0000000000010770 <.LBB0_33>:
   10770: 04 00        C.BSTART	COND, 0x10770
   10772: 35 af f1 0f  andiw	a1, 255,	->u
   10776: 97 0f 00 10  lui	65536,	->t
   1077a: 59 20 8e 01  swi	u#1, [t#1, 0]
   1077e: 87 5f 00 00  addtpc	5,	->t
   10782: 95 0f ec 64  addi	t#1, 1614,	->t
   10786: 89 01 81 07  lb	[a0, t#1],	->a1
   1078a: 15 01 11 00  addi	a0, 1,	->a0
   1078e: b6 80        c.setc.ne	a0, s5
   10790: 00 08        C.BSTART.STD
   10792: b5 01 00 02  addiw	zero, 32,	->a1
   10796: 56 10        c.movi	1,	->a0

0000000000010798 <.LBB0_35>:
   10798: 04 00        C.BSTART	COND, 0x10798
   1079a: 35 af f1 0f  andiw	a1, 255,	->u
   1079e: 97 0f 00 10  lui	65536,	->t
   107a2: 59 20 8e 01  swi	u#1, [t#1, 0]
   107a6: 87 5f 00 00  addtpc	5,	->t
   107aa: 95 0f 0c 7d  addi	t#1, 2000,	->t
   107ae: 89 01 81 07  lb	[a0, t#1],	->a1
   107b2: 15 01 11 00  addi	a0, 1,	->a0
   107b6: b6 88        c.setc.ne	a0, s6
   107b8: 00 08        C.BSTART.STD
   107ba: 35 01 c0 01  addiw	zero, 28,	->a0

00000000000107be <.LBB0_37>:
   107be: 04 00        C.BSTART	COND, 0x107be
   107c0: 85 7f c1 00  sll	a0, s1,	->t
   107c4: 05 5f cc 00  srl	t#1, s1,	->u
   107c8: 0e 00 97 3f 00 0f    hl.lui	61443,	->t
   107ce: a5 5f cc 01  srlw	t#1, u#1,	->t
   107d2: 15 2f fc 00  andi	t#1, 15,	->u
   107d6: 87 5f 00 00  addtpc	5,	->t
   107da: 95 0f ac 5f  addi	t#1, 1530,	->t
   107de: 09 4f 8e 07  lbu	[u#1, t#1],	->u
   107e2: 97 0f 00 10  lui	65536,	->t
   107e6: 59 20 8e 01  swi	u#1, [t#1, 0]
   107ea: 25 01 e1 06  addw	a0, s3,	->a0
   107ee: 9c 50        c.sext.w	a0,	->t
   107f0: 36 7e        c.setc.ne	t#1, s4
   107f2: 00 08        C.BSTART.STD
   107f4: 06 10        c.movr	zero,	->a0
   107f6: b5 01 a0 03  addiw	zero, 58,	->a1

00000000000107fa <.LBB0_39>:
   107fa: 04 00        C.BSTART	COND, 0x107fa
   107fc: 35 af f1 0f  andiw	a1, 255,	->u
   10800: 97 0f 00 10  lui	65536,	->t
   10804: 59 20 8e 01  swi	u#1, [t#1, 0]
   10808: 87 5f 00 00  addtpc	5,	->t
   1080c: 95 0f bc 7d  addi	t#1, 2011,	->t
   10810: 89 01 81 07  lb	[a0, t#1],	->a1
   10814: 15 01 11 00  addi	a0, 1,	->a0
   10818: b6 68        c.setc.ne	a0, s2
   1081a: 0e 00 01 40 e3 0e 16 56      HL.BSTART.STD	CALL, 0x143a6, ra=.LBB0_424
   10822: 06 58        c.movr	zero,	->s0
   10824: 59 b0 15 0a  sdi	s0, [sp, 40]
   10828: 59 b0 15 08  sdi	s0, [sp, 32]
   1082c: fe 7f 17 f1 ff ff    hl.lui	2147483647,	->a0
   10832: 05 71 c1 00  sll	a0, s1,	->a0
   10836: fe ff 97 f1 ff ff    hl.lui	4294967295,	->a1
   1083c: 85 f1 c1 00  sll	a1, s1,	->a1
   10840: 85 d1 c1 00  srl	a1, s1,	->a1
   10844: 85 39 31 06  or	a0, a1,	->s8
   10848: 19 b1 50 00  ldi	[sp, 40],	->a0
   1084c: 99 b1 40 00  ldi	[sp, 32],	->a1

0000000000010850 <.LBB0_424>:
   10850: f4 10        C.BSTART	COND, 0x10a6e
   10852: 05 2f 31 07  and	a0, s8,	->u
   10856: 0e 00 b9 3f e9 27    hl.ld.pcr	[0x4fd2],	->t
   1085c: db 2f cc 01  flt.fd	t#1, u#1,	->t
   10860: 95 4f 1c 00  xori	t#1, 1,	->t
   10864: 36 06        c.setc.ne	t#1, zero
   10866: 44 10        C.BSTART	COND, 0x10a6e
   10868: 0e 00 b9 6f cc 27    hl.lwu.pcr	[0x4f98],	->t
   1086e: db 0f 81 01  feq.fd	a0, t#1,	->t
   10872: 36 06        c.setc.ne	t#1, zero
   10874: d4 0f        C.BSTART	COND, 0x10a6e
   10876: 06 20        c.movr	zero,	->a2
   10878: a6 20        c.setc.eq	a0, a2
   1087a: 00 08        C.BSTART.STD
   1087c: 35 03 60 04  addiw	zero, 70,	->a4
   10880: 56 18        c.movi	1,	->a1
   10882: 95 02 20 02  addi	zero, 34,	->a3

0000000000010886 <.LBB0_44>:
   10886: 04 00        C.BSTART	COND, 0x10886
   10888: 35 2f f3 0f  andiw	a4, 255,	->u
   1088c: 97 0f 00 10  lui	65536,	->t
   10890: 59 20 8e 01  swi	u#1, [t#1, 0]
   10894: 87 5f 00 00  addtpc	5,	->t
   10898: 95 0f 5c 69  addi	t#1, 1685,	->t
   1089c: 09 83 81 07  lb	[a1, t#1],	->a4
   108a0: 95 81 11 00  addi	a1, 1,	->a1
   108a4: f6 28        c.setc.ne	a1, a3
   108a6: 00 08        C.BSTART.STD
   108a8: b5 02 60 04  addiw	zero, 70,	->a3
   108ac: 56 18        c.movi	1,	->a1

00000000000108ae <.LBB0_46>:
   108ae: 04 00        C.BSTART	COND, 0x108ae
   108b0: 35 af f2 0f  andiw	a3, 255,	->u
   108b4: 97 0f 00 10  lui	65536,	->t
   108b8: 59 20 8e 01  swi	u#1, [t#1, 0]
   108bc: 87 5f 00 00  addtpc	5,	->t
   108c0: 95 0f ec 68  addi	t#1, 1678,	->t
   108c4: 89 82 81 07  lb	[a1, t#1],	->a3
   108c8: 95 81 11 00  addi	a1, 1,	->a1
   108cc: f6 80        c.setc.ne	a1, s5
   108ce: 00 08        C.BSTART.STD
   108d0: b5 02 00 02  addiw	zero, 32,	->a3
   108d4: 95 01 00 01  addi	zero, 16,	->a1

00000000000108d8 <.LBB0_48>:
   108d8: 04 00        C.BSTART	COND, 0x108d8
   108da: 35 af f2 0f  andiw	a3, 255,	->u
   108de: 97 0f 00 10  lui	65536,	->t
   108e2: 59 20 8e 01  swi	u#1, [t#1, 0]
   108e6: 87 5f 00 00  addtpc	5,	->t
   108ea: 95 0f 6c 75  addi	t#1, 1878,	->t
   108ee: 89 02 82 07  lb	[a2, t#1],	->a3
   108f2: 15 02 12 00  addi	a2, 1,	->a2
   108f6: 36 19        c.setc.ne	a2, a1
   108f8: 00 08        C.BSTART.STD
   108fa: b5 13 00 02  subiw	zero, 32,	->a5
   108fe: b5 02 00 03  addiw	zero, 48,	->a3
   10902: 16 31        c.movi	4,	->a4
   10904: 06 20        c.movr	zero,	->a2

0000000000010906 <.LBB0_50>:
   10906: 04 00        C.BSTART	COND, 0x10906
   10908: 97 0f 00 10  lui	65536,	->t
   1090c: 59 a0 82 01  swi	a3, [t#1, 0]
   10910: a5 83 63 06  addw	a5, a4,	->a5
   10914: dc 51        c.sext.w	a5,	->t
   10916: 36 26        c.setc.ne	t#1, a2
   10918: 00 08        C.BSTART.STD
   1091a: b5 13 00 02  subiw	zero, 32,	->a5

000000000001091e <.LBB0_52>:
   1091e: 04 00        C.BSTART	COND, 0x1091e
   10920: 97 0f 00 10  lui	65536,	->t
   10924: 59 a0 82 01  swi	a3, [t#1, 0]
   10928: a5 83 63 06  addw	a5, a4,	->a5
   1092c: dc 51        c.sext.w	a5,	->t
   1092e: 36 26        c.setc.ne	t#1, a2
   10930: 00 08        C.BSTART.STD
   10932: 56 2b        c.movi	13,	->a3

0000000000010934 <.LBB0_54>:
   10934: 04 00        C.BSTART	COND, 0x10934
   10936: 35 af f2 0f  andiw	a3, 255,	->u
   1093a: 97 0f 00 10  lui	65536,	->t
   1093e: 59 20 8e 01  swi	u#1, [t#1, 0]
   10942: 87 5f 00 00  addtpc	5,	->t
   10946: 95 0f 9c 68  addi	t#1, 1673,	->t
   1094a: 89 02 82 07  lb	[a2, t#1],	->a3
   1094e: 15 02 12 00  addi	a2, 1,	->a2
   10952: 36 69        c.setc.ne	a2, s2
   10954: 00 08        C.BSTART.STD
   10956: 06 20        c.movr	zero,	->a2
   10958: b5 02 00 02  addiw	zero, 32,	->a3

000000000001095c <.LBB0_56>:
   1095c: 04 00        C.BSTART	COND, 0x1095c
   1095e: 35 af f2 0f  andiw	a3, 255,	->u
   10962: 97 0f 00 10  lui	65536,	->t
   10966: 59 20 8e 01  swi	u#1, [t#1, 0]
   1096a: 87 5f 00 00  addtpc	5,	->t
   1096e: 95 0f 0c 71  addi	t#1, 1808,	->t
   10972: 89 02 82 07  lb	[a2, t#1],	->a3
   10976: 15 02 12 00  addi	a2, 1,	->a2
   1097a: 36 19        c.setc.ne	a2, a1
   1097c: 00 08        C.BSTART.STD
   1097e: 85 51 c1 00  srl	a0, s1,	->a1
   10982: 35 02 c0 01  addiw	zero, 28,	->a2

0000000000010986 <.LBB0_58>:
   10986: 04 00        C.BSTART	COND, 0x10986
   10988: 85 7f c2 00  sll	a2, s1,	->t
   1098c: 85 5f cc 00  srl	t#1, s1,	->t
   10990: a5 df 81 01  srlw	a1, t#1,	->t
   10994: 15 2f fc 00  andi	t#1, 15,	->u
   10998: 87 5f 00 00  addtpc	5,	->t
   1099c: 95 0f ac 5f  addi	t#1, 1530,	->t
   109a0: 09 4f 8e 07  lbu	[u#1, t#1],	->u
   109a4: 97 0f 00 10  lui	65536,	->t
   109a8: 59 20 8e 01  swi	u#1, [t#1, 0]
   109ac: 25 02 e2 06  addw	a2, s3,	->a2
   109b0: 1c 51        c.sext.w	a2,	->t
   109b2: 36 7e        c.setc.ne	t#1, s4
   109b4: 00 08        C.BSTART.STD
   109b6: b5 01 c0 01  addiw	zero, 28,	->a1

00000000000109ba <.LBB0_60>:
   109ba: 04 00        C.BSTART	COND, 0x109ba
   109bc: 85 ff c1 00  sll	a1, s1,	->t
   109c0: 85 5f cc 00  srl	t#1, s1,	->t
   109c4: a5 5f 81 01  srlw	a0, t#1,	->t
   109c8: 15 2f fc 00  andi	t#1, 15,	->u
   109cc: 87 5f 00 00  addtpc	5,	->t
   109d0: 95 0f ac 5f  addi	t#1, 1530,	->t
   109d4: 09 4f 8e 07  lbu	[u#1, t#1],	->u
   109d8: 97 0f 00 10  lui	65536,	->t
   109dc: 59 20 8e 01  swi	u#1, [t#1, 0]
   109e0: a5 81 e1 06  addw	a1, s3,	->a1
   109e4: dc 50        c.sext.w	a1,	->t
   109e6: 36 7e        c.setc.ne	t#1, s4
   109e8: 00 08        C.BSTART.STD
   109ea: 06 18        c.movr	zero,	->a1
   109ec: 56 23        c.movi	13,	->a2

00000000000109ee <.LBB0_62>:
   109ee: 04 00        C.BSTART	COND, 0x109ee
   109f0: 35 2f f2 0f  andiw	a2, 255,	->u
   109f4: 97 0f 00 10  lui	65536,	->t
   109f8: 59 20 8e 01  swi	u#1, [t#1, 0]
   109fc: 87 5f 00 00  addtpc	5,	->t
   10a00: 95 0f 9c 68  addi	t#1, 1673,	->t
   10a04: 09 82 81 07  lb	[a1, t#1],	->a2
   10a08: 95 81 11 00  addi	a1, 1,	->a1
   10a0c: f6 68        c.setc.ne	a1, s2
   10a0e: 00 08        C.BSTART.STD
   10a10: 0e 00 97 cf 04 00    hl.lui	76,	->t
   10a16: 05 7f cc 00  sll	t#1, s1,	->u
   10a1a: 4e 58 97 3f 45 55    hl.lui	1480938579,	->t
   10a20: 85 7f cc 00  sll	t#1, s1,	->t
   10a24: 85 5f cc 00  srl	t#1, s1,	->t
   10a28: 05 3f 8e 07  or	u#1, t#1,	->u
   10a2c: 97 8f 00 00  lui	8,	->t
   10a30: 59 30 8e 01  sdi	u#1, [t#1, 0]
   10a34: 0e 00 17 8f 00 08    hl.lui	32776,	->u
   10a3a: 0e 00 97 3f 00 0f    hl.lui	61443,	->t
   10a40: 2a 07        c.swi	t#1, [u#1, 0]
   10a42: 0e 00 97 cf 00 08    hl.lui	32780,	->t
   10a48: 56 f0        c.movi	1,	->u
   10a4a: 59 20 8e 01  swi	u#1, [t#1, 0]
   10a4e: 0e 00 17 0f 01 08    hl.lui	32784,	->u
   10a54: 06 f8        c.movr	zero,	->t
   10a56: 3a 07        c.sdi	t#1, [u#1, 0]
   10a58: 0e 00 97 8f 01 08    hl.lui	32792,	->t
   10a5e: 59 30 81 01  sdi	a0, [t#1, 0]
   10a62: 0e 10 97 4f 00 00    hl.lui	268435460,	->t
   10a68: 59 a0 8e 01  swi	u#2, [t#1, 0]

0000000000010a6c <.LBB0_64>:
   10a6c: 02 00        C.BSTART	DIRECT, 0x10a6c

0000000000010a6e <.LBB0_65>:
   10a6e: 00 08        C.BSTART.STD
   10a70: b5 01 00 05  addiw	zero, 80,	->a1
   10a74: 56 10        c.movi	1,	->a0

0000000000010a76 <.LBB0_66>:
   10a76: 04 00        C.BSTART	COND, 0x10a76
   10a78: 35 af f1 0f  andiw	a1, 255,	->u
   10a7c: 97 0f 00 10  lui	65536,	->t
   10a80: 59 20 8e 01  swi	u#1, [t#1, 0]
   10a84: 87 5f 00 00  addtpc	5,	->t
   10a88: 95 0f ec 64  addi	t#1, 1614,	->t
   10a8c: 89 01 81 07  lb	[a0, t#1],	->a1
   10a90: 15 01 11 00  addi	a0, 1,	->a0
   10a94: b6 80        c.setc.ne	a0, s5
   10a96: 00 08        C.BSTART.STD
   10a98: b5 01 00 02  addiw	zero, 32,	->a1
   10a9c: 56 10        c.movi	1,	->a0

0000000000010a9e <.LBB0_68>:
   10a9e: 04 00        C.BSTART	COND, 0x10a9e
   10aa0: 35 af f1 0f  andiw	a1, 255,	->u
   10aa4: 97 0f 00 10  lui	65536,	->t
   10aa8: 59 20 8e 01  swi	u#1, [t#1, 0]
   10aac: 87 5f 00 00  addtpc	5,	->t
   10ab0: 95 0f 0c 7d  addi	t#1, 2000,	->t
   10ab4: 89 01 81 07  lb	[a0, t#1],	->a1
   10ab8: 15 01 11 00  addi	a0, 1,	->a0
   10abc: b6 88        c.setc.ne	a0, s6
   10abe: 00 08        C.BSTART.STD
   10ac0: 35 01 c0 01  addiw	zero, 28,	->a0

0000000000010ac4 <.LBB0_70>:
   10ac4: 04 00        C.BSTART	COND, 0x10ac4
   10ac6: 85 7f c1 00  sll	a0, s1,	->t
   10aca: 05 5f cc 00  srl	t#1, s1,	->u
   10ace: 0e 00 97 0f 01 0f    hl.lui	61456,	->t
   10ad4: a5 5f cc 01  srlw	t#1, u#1,	->t
   10ad8: 15 2f fc 00  andi	t#1, 15,	->u
   10adc: 87 5f 00 00  addtpc	5,	->t
   10ae0: 95 0f ac 5f  addi	t#1, 1530,	->t
   10ae4: 09 4f 8e 07  lbu	[u#1, t#1],	->u
   10ae8: 97 0f 00 10  lui	65536,	->t
   10aec: 59 20 8e 01  swi	u#1, [t#1, 0]
   10af0: 25 01 e1 06  addw	a0, s3,	->a0
   10af4: 9c 50        c.sext.w	a0,	->t
   10af6: 36 7e        c.setc.ne	t#1, s4
   10af8: 00 08        C.BSTART.STD
   10afa: 35 01 a0 03  addiw	zero, 58,	->a0

0000000000010afe <.LBB0_72>:
   10afe: 04 00        C.BSTART	COND, 0x10afe
   10b00: 35 2f f1 0f  andiw	a0, 255,	->u
   10b04: 97 0f 00 10  lui	65536,	->t
   10b08: 59 20 8e 01  swi	u#1, [t#1, 0]
   10b0c: 87 5f 00 00  addtpc	5,	->t
   10b10: 95 0f bc 7d  addi	t#1, 2011,	->t
   10b14: 09 81 85 07  lb	[s0, t#1],	->a0
   10b18: 95 85 15 00  addi	s0, 1,	->s0
   10b1c: f6 6a        c.setc.ne	s0, s2
   10b1e: 0e 00 01 40 2a 0f 96 57      HL.BSTART.STD	CALL, 0x147c6, ra=.LBB0_423
   10b26: 1e 40 17 01 00 40    hl.lui	1075052544,	->a0
   10b2c: 05 71 c1 00  sll	a0, s1,	->a0
   10b30: 0e 00 97 01 00 00    hl.lui	0,	->a1
   10b36: 85 f1 c1 00  sll	a1, s1,	->a1
   10b3a: 85 d1 c1 00  srl	a1, s1,	->a1
   10b3e: 05 31 31 06  or	a0, a1,	->a0
   10b42: 59 30 11 0a  sdi	a0, [sp, 40]
   10b46: 0e 40 17 01 00 40    hl.lui	1074003968,	->a0
   10b4c: 05 71 c1 00  sll	a0, s1,	->a0
   10b50: 85 39 31 06  or	a0, a1,	->s8
   10b54: 59 b0 19 08  sdi	s8, [sp, 32]
   10b58: 19 b1 50 00  ldi	[sp, 40],	->a0
   10b5c: 99 b1 40 00  ldi	[sp, 32],	->a1

0000000000010b60 <.LBB0_423>:
   10b60: 54 02        C.BSTART	COND, 0x10baa
   10b62: 86 58        c.movr	a0,	->s0
   10b64: e6 9a        c.setc.eq	s0, s8
   10b66: 0e 00 01 40 10 0e d6 54      HL.BSTART.STD	CALL, 0x143a6, ra=.LBB0_422
   10b6e: fe 7f 17 f1 ff ff    hl.lui	2147483647,	->a0
   10b74: 05 71 c1 00  sll	a0, s1,	->a0
   10b78: fe ff 97 f1 ff ff    hl.lui	4294967295,	->a1
   10b7e: 85 f1 c1 00  sll	a1, s1,	->a1
   10b82: 85 d1 c1 00  srl	a1, s1,	->a1
   10b86: 85 39 31 06  or	a0, a1,	->s8
   10b8a: 0e 00 b9 61 49 26    hl.lwu.pcr	[0x4c92],	->a1
   10b90: c6 12        c.movr	s0,	->a0

0000000000010b92 <.LBB0_422>:
   10b92: 01 b0 aa 07  BSTART.STD	COND, 0x12a3c
   10b96: 05 2f 31 07  and	a0, s8,	->u
   10b9a: 0e 00 b9 3f 47 26    hl.ld.pcr	[0x4c8e],	->t
   10ba0: db 2f cc 01  flt.fd	t#1, u#1,	->t
   10ba4: 95 4f 1c 00  xori	t#1, 1,	->t
   10ba8: 26 06        c.setc.eq	t#1, zero

0000000000010baa <.LBB0_78>:
   10baa: 00 08        C.BSTART.STD
   10bac: b5 01 00 05  addiw	zero, 80,	->a1
   10bb0: 56 10        c.movi	1,	->a0

0000000000010bb2 <.LBB0_79>:
   10bb2: 04 00        C.BSTART	COND, 0x10bb2
   10bb4: 35 af f1 0f  andiw	a1, 255,	->u
   10bb8: 97 0f 00 10  lui	65536,	->t
   10bbc: 59 20 8e 01  swi	u#1, [t#1, 0]
   10bc0: 87 5f 00 00  addtpc	5,	->t
   10bc4: 95 0f ec 64  addi	t#1, 1614,	->t
   10bc8: 89 01 81 07  lb	[a0, t#1],	->a1
   10bcc: 15 01 11 00  addi	a0, 1,	->a0
   10bd0: b6 80        c.setc.ne	a0, s5
   10bd2: 00 08        C.BSTART.STD
   10bd4: b5 01 00 02  addiw	zero, 32,	->a1
   10bd8: 56 10        c.movi	1,	->a0

0000000000010bda <.LBB0_81>:
   10bda: 04 00        C.BSTART	COND, 0x10bda
   10bdc: 35 af f1 0f  andiw	a1, 255,	->u
   10be0: 97 0f 00 10  lui	65536,	->t
   10be4: 59 20 8e 01  swi	u#1, [t#1, 0]
   10be8: 87 5f 00 00  addtpc	5,	->t
   10bec: 95 0f 0c 7d  addi	t#1, 2000,	->t
   10bf0: 89 01 81 07  lb	[a0, t#1],	->a1
   10bf4: 15 01 11 00  addi	a0, 1,	->a0
   10bf8: b6 88        c.setc.ne	a0, s6
   10bfa: 00 08        C.BSTART.STD
   10bfc: 35 01 c0 01  addiw	zero, 28,	->a0

0000000000010c00 <.LBB0_83>:
   10c00: 04 00        C.BSTART	COND, 0x10c00
   10c02: 85 7f c1 00  sll	a0, s1,	->t
   10c06: 05 5f cc 00  srl	t#1, s1,	->u
   10c0a: 0e 00 97 1f 01 0f    hl.lui	61457,	->t
   10c10: a5 5f cc 01  srlw	t#1, u#1,	->t
   10c14: 15 2f fc 00  andi	t#1, 15,	->u
   10c18: 87 5f 00 00  addtpc	5,	->t
   10c1c: 95 0f ac 5f  addi	t#1, 1530,	->t
   10c20: 09 4f 8e 07  lbu	[u#1, t#1],	->u
   10c24: 97 0f 00 10  lui	65536,	->t
   10c28: 59 20 8e 01  swi	u#1, [t#1, 0]
   10c2c: 25 01 e1 06  addw	a0, s3,	->a0
   10c30: 9c 50        c.sext.w	a0,	->t
   10c32: 36 7e        c.setc.ne	t#1, s4
   10c34: 00 08        C.BSTART.STD
   10c36: 06 10        c.movr	zero,	->a0
   10c38: b5 01 a0 03  addiw	zero, 58,	->a1

0000000000010c3c <.LBB0_85>:
   10c3c: 04 00        C.BSTART	COND, 0x10c3c
   10c3e: 35 af f1 0f  andiw	a1, 255,	->u
   10c42: 97 0f 00 10  lui	65536,	->t
   10c46: 59 20 8e 01  swi	u#1, [t#1, 0]
   10c4a: 87 5f 00 00  addtpc	5,	->t
   10c4e: 95 0f bc 7d  addi	t#1, 2011,	->t
   10c52: 89 01 81 07  lb	[a0, t#1],	->a1
   10c56: 15 01 11 00  addi	a0, 1,	->a0
   10c5a: b6 68        c.setc.ne	a0, s2
   10c5c: 0e 00 01 c0 da 0e 07 65 02 00HL.BSTART.STD	CALL, 0x147c6, ra=.LBB0_421
   10c66: fe 3f 17 01 00 00    hl.lui	1072693248,	->a0
   10c6c: 05 71 c1 00  sll	a0, s1,	->a0
   10c70: 0e 00 97 01 00 00    hl.lui	0,	->a1
   10c76: 85 f1 c1 00  sll	a1, s1,	->a1
   10c7a: 85 d1 c1 00  srl	a1, s1,	->a1
   10c7e: 05 31 31 06  or	a0, a1,	->a0
   10c82: 59 30 11 0a  sdi	a0, [sp, 40]
   10c86: 0e 40 17 01 00 00    hl.lui	1073741824,	->a0
   10c8c: 05 71 c1 00  sll	a0, s1,	->a0
   10c90: 05 31 31 06  or	a0, a1,	->a0
   10c94: 59 30 11 08  sdi	a0, [sp, 32]
   10c98: fe bf 17 01 00 00    hl.lui	3220176896,	->a0
   10c9e: 05 71 c1 00  sll	a0, s1,	->a0
   10ca2: 85 39 31 06  or	a0, a1,	->s8
   10ca6: 19 b1 50 00  ldi	[sp, 40],	->a0
   10caa: 99 b1 40 00  ldi	[sp, 32],	->a1

0000000000010cae <.LBB0_421>:
   10cae: 54 02        C.BSTART	COND, 0x10cf8
   10cb0: 86 58        c.movr	a0,	->s0
   10cb2: e6 9a        c.setc.eq	s0, s8
   10cb4: 0e 00 01 c0 bc 0d d6 54      HL.BSTART.STD	CALL, 0x143a6, ra=.LBB0_420
   10cbc: fe 7f 17 f1 ff ff    hl.lui	2147483647,	->a0
   10cc2: 05 71 c1 00  sll	a0, s1,	->a0
   10cc6: fe ff 97 f1 ff ff    hl.lui	4294967295,	->a1
   10ccc: 85 f1 c1 00  sll	a1, s1,	->a1
   10cd0: 85 d1 c1 00  srl	a1, s1,	->a1
   10cd4: 85 39 31 06  or	a0, a1,	->s8
   10cd8: 0e 00 b9 61 96 25    hl.lwu.pcr	[0x4b2c],	->a1
   10cde: c6 12        c.movr	s0,	->a0

0000000000010ce0 <.LBB0_420>:
   10ce0: 01 30 6c 07  BSTART.STD	COND, 0x12a90
   10ce4: 05 2f 31 07  and	a0, s8,	->u
   10ce8: 0e 00 b9 3f a0 25    hl.ld.pcr	[0x4b40],	->t
   10cee: db 2f cc 01  flt.fd	t#1, u#1,	->t
   10cf2: 95 4f 1c 00  xori	t#1, 1,	->t
   10cf6: 26 06        c.setc.eq	t#1, zero

0000000000010cf8 <.LBB0_91>:
   10cf8: 00 08        C.BSTART.STD
   10cfa: b5 01 00 05  addiw	zero, 80,	->a1
   10cfe: 56 10        c.movi	1,	->a0

0000000000010d00 <.LBB0_92>:
   10d00: 04 00        C.BSTART	COND, 0x10d00
   10d02: 35 af f1 0f  andiw	a1, 255,	->u
   10d06: 97 0f 00 10  lui	65536,	->t
   10d0a: 59 20 8e 01  swi	u#1, [t#1, 0]
   10d0e: 87 5f 00 00  addtpc	5,	->t
   10d12: 95 0f ec 64  addi	t#1, 1614,	->t
   10d16: 89 01 81 07  lb	[a0, t#1],	->a1
   10d1a: 15 01 11 00  addi	a0, 1,	->a0
   10d1e: b6 80        c.setc.ne	a0, s5
   10d20: 00 08        C.BSTART.STD
   10d22: b5 01 00 02  addiw	zero, 32,	->a1
   10d26: 56 10        c.movi	1,	->a0

0000000000010d28 <.LBB0_94>:
   10d28: 04 00        C.BSTART	COND, 0x10d28
   10d2a: 35 af f1 0f  andiw	a1, 255,	->u
   10d2e: 97 0f 00 10  lui	65536,	->t
   10d32: 59 20 8e 01  swi	u#1, [t#1, 0]
   10d36: 87 5f 00 00  addtpc	5,	->t
   10d3a: 95 0f 0c 7d  addi	t#1, 2000,	->t
   10d3e: 89 01 81 07  lb	[a0, t#1],	->a1
   10d42: 15 01 11 00  addi	a0, 1,	->a0
   10d46: b6 88        c.setc.ne	a0, s6
   10d48: 00 08        C.BSTART.STD
   10d4a: 35 01 c0 01  addiw	zero, 28,	->a0

0000000000010d4e <.LBB0_96>:
   10d4e: 04 00        C.BSTART	COND, 0x10d4e
   10d50: 85 7f c1 00  sll	a0, s1,	->t
   10d54: 05 5f cc 00  srl	t#1, s1,	->u
   10d58: 0e 00 97 0f 02 0f    hl.lui	61472,	->t
   10d5e: a5 5f cc 01  srlw	t#1, u#1,	->t
   10d62: 15 2f fc 00  andi	t#1, 15,	->u
   10d66: 87 5f 00 00  addtpc	5,	->t
   10d6a: 95 0f ac 5f  addi	t#1, 1530,	->t
   10d6e: 09 4f 8e 07  lbu	[u#1, t#1],	->u
   10d72: 97 0f 00 10  lui	65536,	->t
   10d76: 59 20 8e 01  swi	u#1, [t#1, 0]
   10d7a: 25 01 e1 06  addw	a0, s3,	->a0
   10d7e: 9c 50        c.sext.w	a0,	->t
   10d80: 36 7e        c.setc.ne	t#1, s4
   10d82: 00 08        C.BSTART.STD
   10d84: 06 10        c.movr	zero,	->a0
   10d86: b5 01 a0 03  addiw	zero, 58,	->a1

0000000000010d8a <.LBB0_98>:
   10d8a: 04 00        C.BSTART	COND, 0x10d8a
   10d8c: 35 af f1 0f  andiw	a1, 255,	->u
   10d90: 97 0f 00 10  lui	65536,	->t
   10d94: 59 20 8e 01  swi	u#1, [t#1, 0]
   10d98: 87 5f 00 00  addtpc	5,	->t
   10d9c: 95 0f bc 7d  addi	t#1, 2011,	->t
   10da0: 89 01 81 07  lb	[a0, t#1],	->a1
   10da4: 15 01 11 00  addi	a0, 1,	->a0
   10da8: b6 68        c.setc.ne	a0, s2
   10daa: 0e 00 01 40 9b 0e 07 65 02 00HL.BSTART.STD	CALL, 0x14816, ra=.LBB0_419
   10db4: 0e 40 17 01 00 00    hl.lui	1073741824,	->a0
   10dba: 05 71 c1 00  sll	a0, s1,	->a0
   10dbe: 0e 00 97 01 00 00    hl.lui	0,	->a1
   10dc4: 85 f1 c1 00  sll	a1, s1,	->a1
   10dc8: 85 d1 c1 00  srl	a1, s1,	->a1
   10dcc: 05 31 31 06  or	a0, a1,	->a0
   10dd0: 59 30 11 0a  sdi	a0, [sp, 40]
   10dd4: 0e 40 17 01 00 80    hl.lui	1074266112,	->a0
   10dda: 05 71 c1 00  sll	a0, s1,	->a0
   10dde: 05 31 31 06  or	a0, a1,	->a0
   10de2: 59 30 11 08  sdi	a0, [sp, 32]
   10de6: 1e 40 17 01 00 80    hl.lui	1075314688,	->a0
   10dec: 05 71 c1 00  sll	a0, s1,	->a0
   10df0: 85 39 31 06  or	a0, a1,	->s8
   10df4: 19 b1 50 00  ldi	[sp, 40],	->a0
   10df8: 99 b1 40 00  ldi	[sp, 32],	->a1

0000000000010dfc <.LBB0_419>:
   10dfc: 54 02        C.BSTART	COND, 0x10e46
   10dfe: 86 58        c.movr	a0,	->s0
   10e00: e6 9a        c.setc.eq	s0, s8
   10e02: 0e 00 01 40 69 0d d6 54      HL.BSTART.STD	CALL, 0x143a6, ra=.LBB0_418
   10e0a: fe 7f 17 f1 ff ff    hl.lui	2147483647,	->a0
   10e10: 05 71 c1 00  sll	a0, s1,	->a0
   10e14: fe ff 97 f1 ff ff    hl.lui	4294967295,	->a1
   10e1a: 85 f1 c1 00  sll	a1, s1,	->a1
   10e1e: 85 d1 c1 00  srl	a1, s1,	->a1
   10e22: 85 39 31 06  or	a0, a1,	->s8
   10e26: 0e 00 b9 61 eb 24    hl.lwu.pcr	[0x49d6],	->a1
   10e2c: c6 12        c.movr	s0,	->a0

0000000000010e2e <.LBB0_418>:
   10e2e: 01 b0 2d 07  BSTART.STD	COND, 0x12ae4
   10e32: 05 2f 31 07  and	a0, s8,	->u
   10e36: 0e 00 b9 3f f9 24    hl.ld.pcr	[0x49f2],	->t
   10e3c: db 2f cc 01  flt.fd	t#1, u#1,	->t
   10e40: 95 4f 1c 00  xori	t#1, 1,	->t
   10e44: 26 06        c.setc.eq	t#1, zero

0000000000010e46 <.LBB0_104>:
   10e46: 00 08        C.BSTART.STD
   10e48: b5 01 00 05  addiw	zero, 80,	->a1
   10e4c: 56 10        c.movi	1,	->a0

0000000000010e4e <.LBB0_105>:
   10e4e: 04 00        C.BSTART	COND, 0x10e4e
   10e50: 35 af f1 0f  andiw	a1, 255,	->u
   10e54: 97 0f 00 10  lui	65536,	->t
   10e58: 59 20 8e 01  swi	u#1, [t#1, 0]
   10e5c: 87 5f 00 00  addtpc	5,	->t
   10e60: 95 0f ec 64  addi	t#1, 1614,	->t
   10e64: 89 01 81 07  lb	[a0, t#1],	->a1
   10e68: 15 01 11 00  addi	a0, 1,	->a0
   10e6c: b6 80        c.setc.ne	a0, s5
   10e6e: 00 08        C.BSTART.STD
   10e70: b5 01 00 02  addiw	zero, 32,	->a1
   10e74: 56 10        c.movi	1,	->a0

0000000000010e76 <.LBB0_107>:
   10e76: 04 00        C.BSTART	COND, 0x10e76
   10e78: 35 af f1 0f  andiw	a1, 255,	->u
   10e7c: 97 0f 00 10  lui	65536,	->t
   10e80: 59 20 8e 01  swi	u#1, [t#1, 0]
   10e84: 87 5f 00 00  addtpc	5,	->t
   10e88: 95 0f 0c 7d  addi	t#1, 2000,	->t
   10e8c: 89 01 81 07  lb	[a0, t#1],	->a1
   10e90: 15 01 11 00  addi	a0, 1,	->a0
   10e94: b6 88        c.setc.ne	a0, s6
   10e96: 00 08        C.BSTART.STD
   10e98: 35 01 c0 01  addiw	zero, 28,	->a0

0000000000010e9c <.LBB0_109>:
   10e9c: 04 00        C.BSTART	COND, 0x10e9c
   10e9e: 85 7f c1 00  sll	a0, s1,	->t
   10ea2: 05 5f cc 00  srl	t#1, s1,	->u
   10ea6: 0e 00 97 1f 02 0f    hl.lui	61473,	->t
   10eac: a5 5f cc 01  srlw	t#1, u#1,	->t
   10eb0: 15 2f fc 00  andi	t#1, 15,	->u
   10eb4: 87 5f 00 00  addtpc	5,	->t
   10eb8: 95 0f ac 5f  addi	t#1, 1530,	->t
   10ebc: 09 4f 8e 07  lbu	[u#1, t#1],	->u
   10ec0: 97 0f 00 10  lui	65536,	->t
   10ec4: 59 20 8e 01  swi	u#1, [t#1, 0]
   10ec8: 25 01 e1 06  addw	a0, s3,	->a0
   10ecc: 9c 50        c.sext.w	a0,	->t
   10ece: 36 7e        c.setc.ne	t#1, s4
   10ed0: 00 08        C.BSTART.STD
   10ed2: 06 10        c.movr	zero,	->a0
   10ed4: b5 01 a0 03  addiw	zero, 58,	->a1

0000000000010ed8 <.LBB0_111>:
   10ed8: 04 00        C.BSTART	COND, 0x10ed8
   10eda: 35 af f1 0f  andiw	a1, 255,	->u
   10ede: 97 0f 00 10  lui	65536,	->t
   10ee2: 59 20 8e 01  swi	u#1, [t#1, 0]
   10ee6: 87 5f 00 00  addtpc	5,	->t
   10eea: 95 0f bc 7d  addi	t#1, 2011,	->t
   10eee: 89 01 81 07  lb	[a0, t#1],	->a1
   10ef2: 15 01 11 00  addi	a0, 1,	->a0
   10ef6: b6 68        c.setc.ne	a0, s2
   10ef8: 0e 00 01 c0 47 0e 96 55      HL.BSTART.STD	CALL, 0x14816, ra=.LBB0_417
   10f00: 5e 40 17 01 00 90    hl.lui	1079574528,	->a0
   10f06: 05 71 c1 00  sll	a0, s1,	->a0
   10f0a: 0e 00 97 01 00 00    hl.lui	0,	->a1
   10f10: 85 f1 c1 00  sll	a1, s1,	->a1
   10f14: 85 d1 c1 00  srl	a1, s1,	->a1
   10f18: 05 31 31 06  or	a0, a1,	->a0
   10f1c: 59 30 11 0a  sdi	a0, [sp, 40]
   10f20: 0e 00 b9 61 70 24    hl.lwu.pcr	[0x48e0],	->a1
   10f26: 19 b1 50 00  ldi	[sp, 40],	->a0

0000000000010f2a <.LBB0_417>:
   10f2a: d4 10        C.BSTART	COND, 0x11144
   10f2c: 0e 00 b9 3f 7e 24    hl.ld.pcr	[0x48fc],	->t
   10f32: db 2f 2c 00  flt.fd	t#1, a0,	->t
   10f36: 95 4f 1c 00  xori	t#1, 1,	->t
   10f3a: 36 06        c.setc.ne	t#1, zero
   10f3c: 44 10        C.BSTART	COND, 0x11144
   10f3e: 0e 00 b9 6f 61 24    hl.lwu.pcr	[0x48c2],	->t
   10f44: db 0f 81 01  feq.fd	a0, t#1,	->t
   10f48: 36 06        c.setc.ne	t#1, zero
   10f4a: d4 0f        C.BSTART	COND, 0x11144
   10f4c: 06 20        c.movr	zero,	->a2
   10f4e: a6 20        c.setc.eq	a0, a2
   10f50: 00 08        C.BSTART.STD
   10f52: 35 03 60 04  addiw	zero, 70,	->a4
   10f56: 56 18        c.movi	1,	->a1
   10f58: 95 02 20 02  addi	zero, 34,	->a3

0000000000010f5c <.LBB0_116>:
   10f5c: 04 00        C.BSTART	COND, 0x10f5c
   10f5e: 35 2f f3 0f  andiw	a4, 255,	->u
   10f62: 97 0f 00 10  lui	65536,	->t
   10f66: 59 20 8e 01  swi	u#1, [t#1, 0]
   10f6a: 87 5f 00 00  addtpc	5,	->t
   10f6e: 95 0f 5c 69  addi	t#1, 1685,	->t
   10f72: 09 83 81 07  lb	[a1, t#1],	->a4
   10f76: 95 81 11 00  addi	a1, 1,	->a1
   10f7a: f6 28        c.setc.ne	a1, a3
   10f7c: 00 08        C.BSTART.STD
   10f7e: b5 02 60 04  addiw	zero, 70,	->a3
   10f82: 56 18        c.movi	1,	->a1

0000000000010f84 <.LBB0_118>:
   10f84: 04 00        C.BSTART	COND, 0x10f84
   10f86: 35 af f2 0f  andiw	a3, 255,	->u
   10f8a: 97 0f 00 10  lui	65536,	->t
   10f8e: 59 20 8e 01  swi	u#1, [t#1, 0]
   10f92: 87 5f 00 00  addtpc	5,	->t
   10f96: 95 0f ec 68  addi	t#1, 1678,	->t
   10f9a: 89 82 81 07  lb	[a1, t#1],	->a3
   10f9e: 95 81 11 00  addi	a1, 1,	->a1
   10fa2: f6 80        c.setc.ne	a1, s5
   10fa4: 00 08        C.BSTART.STD
   10fa6: b5 02 00 02  addiw	zero, 32,	->a3
   10faa: 95 01 00 01  addi	zero, 16,	->a1

0000000000010fae <.LBB0_120>:
   10fae: 04 00        C.BSTART	COND, 0x10fae
   10fb0: 35 af f2 0f  andiw	a3, 255,	->u
   10fb4: 97 0f 00 10  lui	65536,	->t
   10fb8: 59 20 8e 01  swi	u#1, [t#1, 0]
   10fbc: 87 5f 00 00  addtpc	5,	->t
   10fc0: 95 0f 6c 75  addi	t#1, 1878,	->t
   10fc4: 89 02 82 07  lb	[a2, t#1],	->a3
   10fc8: 15 02 12 00  addi	a2, 1,	->a2
   10fcc: 36 19        c.setc.ne	a2, a1
   10fce: 00 08        C.BSTART.STD
   10fd0: b5 13 00 02  subiw	zero, 32,	->a5
   10fd4: b5 02 00 03  addiw	zero, 48,	->a3
   10fd8: 16 31        c.movi	4,	->a4
   10fda: 06 20        c.movr	zero,	->a2

0000000000010fdc <.LBB0_122>:
   10fdc: 04 00        C.BSTART	COND, 0x10fdc
   10fde: 97 0f 00 10  lui	65536,	->t
   10fe2: 59 a0 82 01  swi	a3, [t#1, 0]
   10fe6: a5 83 63 06  addw	a5, a4,	->a5
   10fea: dc 51        c.sext.w	a5,	->t
   10fec: 36 26        c.setc.ne	t#1, a2
   10fee: 00 08        C.BSTART.STD
   10ff0: b5 13 00 02  subiw	zero, 32,	->a5

0000000000010ff4 <.LBB0_124>:
   10ff4: 04 00        C.BSTART	COND, 0x10ff4
   10ff6: 97 0f 00 10  lui	65536,	->t
   10ffa: 59 a0 82 01  swi	a3, [t#1, 0]
   10ffe: a5 83 63 06  addw	a5, a4,	->a5
   11002: dc 51        c.sext.w	a5,	->t
   11004: 36 26        c.setc.ne	t#1, a2
   11006: 00 08        C.BSTART.STD
   11008: 56 2b        c.movi	13,	->a3

000000000001100a <.LBB0_126>:
   1100a: 04 00        C.BSTART	COND, 0x1100a
   1100c: 35 af f2 0f  andiw	a3, 255,	->u
   11010: 97 0f 00 10  lui	65536,	->t
   11014: 59 20 8e 01  swi	u#1, [t#1, 0]
   11018: 87 4f 00 00  addtpc	4,	->t
   1101c: 95 0f 9c 68  addi	t#1, 1673,	->t
   11020: 89 02 82 07  lb	[a2, t#1],	->a3
   11024: 15 02 12 00  addi	a2, 1,	->a2
   11028: 36 69        c.setc.ne	a2, s2
   1102a: 00 08        C.BSTART.STD
   1102c: 06 20        c.movr	zero,	->a2
   1102e: b5 02 00 02  addiw	zero, 32,	->a3

0000000000011032 <.LBB0_128>:
   11032: 04 00        C.BSTART	COND, 0x11032
   11034: 35 af f2 0f  andiw	a3, 255,	->u
   11038: 97 0f 00 10  lui	65536,	->t
   1103c: 59 20 8e 01  swi	u#1, [t#1, 0]
   11040: 87 4f 00 00  addtpc	4,	->t
   11044: 95 0f 0c 71  addi	t#1, 1808,	->t
   11048: 89 02 82 07  lb	[a2, t#1],	->a3
   1104c: 15 02 12 00  addi	a2, 1,	->a2
   11050: 36 19        c.setc.ne	a2, a1
   11052: 00 08        C.BSTART.STD
   11054: 85 51 c1 00  srl	a0, s1,	->a1
   11058: 35 02 c0 01  addiw	zero, 28,	->a2

000000000001105c <.LBB0_130>:
   1105c: 04 00        C.BSTART	COND, 0x1105c
   1105e: 85 7f c2 00  sll	a2, s1,	->t
   11062: 85 5f cc 00  srl	t#1, s1,	->t
   11066: a5 df 81 01  srlw	a1, t#1,	->t
   1106a: 15 2f fc 00  andi	t#1, 15,	->u
   1106e: 87 4f 00 00  addtpc	4,	->t
   11072: 95 0f ac 5f  addi	t#1, 1530,	->t
   11076: 09 4f 8e 07  lbu	[u#1, t#1],	->u
   1107a: 97 0f 00 10  lui	65536,	->t
   1107e: 59 20 8e 01  swi	u#1, [t#1, 0]
   11082: 25 02 e2 06  addw	a2, s3,	->a2
   11086: 1c 51        c.sext.w	a2,	->t
   11088: 36 7e        c.setc.ne	t#1, s4
   1108a: 00 08        C.BSTART.STD
   1108c: b5 01 c0 01  addiw	zero, 28,	->a1

0000000000011090 <.LBB0_132>:
   11090: 04 00        C.BSTART	COND, 0x11090
   11092: 85 ff c1 00  sll	a1, s1,	->t
   11096: 85 5f cc 00  srl	t#1, s1,	->t
   1109a: a5 5f 81 01  srlw	a0, t#1,	->t
   1109e: 15 2f fc 00  andi	t#1, 15,	->u
   110a2: 87 4f 00 00  addtpc	4,	->t
   110a6: 95 0f ac 5f  addi	t#1, 1530,	->t
   110aa: 09 4f 8e 07  lbu	[u#1, t#1],	->u
   110ae: 97 0f 00 10  lui	65536,	->t
   110b2: 59 20 8e 01  swi	u#1, [t#1, 0]
   110b6: a5 81 e1 06  addw	a1, s3,	->a1
   110ba: dc 50        c.sext.w	a1,	->t
   110bc: 36 7e        c.setc.ne	t#1, s4
   110be: 00 08        C.BSTART.STD
   110c0: 06 18        c.movr	zero,	->a1
   110c2: 56 23        c.movi	13,	->a2

00000000000110c4 <.LBB0_134>:
   110c4: 04 00        C.BSTART	COND, 0x110c4
   110c6: 35 2f f2 0f  andiw	a2, 255,	->u
   110ca: 97 0f 00 10  lui	65536,	->t
   110ce: 59 20 8e 01  swi	u#1, [t#1, 0]
   110d2: 87 4f 00 00  addtpc	4,	->t
   110d6: 95 0f 9c 68  addi	t#1, 1673,	->t
   110da: 09 82 81 07  lb	[a1, t#1],	->a2
   110de: 95 81 11 00  addi	a1, 1,	->a1
   110e2: f6 68        c.setc.ne	a1, s2
   110e4: 00 08        C.BSTART.STD
   110e6: 0e 00 97 cf 04 00    hl.lui	76,	->t
   110ec: 05 7f cc 00  sll	t#1, s1,	->u
   110f0: 4e 58 97 3f 45 55    hl.lui	1480938579,	->t
   110f6: 85 7f cc 00  sll	t#1, s1,	->t
   110fa: 85 5f cc 00  srl	t#1, s1,	->t
   110fe: 05 3f 8e 07  or	u#1, t#1,	->u
   11102: 97 8f 00 00  lui	8,	->t
   11106: 59 30 8e 01  sdi	u#1, [t#1, 0]
   1110a: 0e 00 17 8f 00 08    hl.lui	32776,	->u
   11110: 0e 00 97 1f 02 0f    hl.lui	61473,	->t
   11116: 2a 07        c.swi	t#1, [u#1, 0]
   11118: 0e 00 97 cf 00 08    hl.lui	32780,	->t
   1111e: 56 f0        c.movi	1,	->u
   11120: 59 20 8e 01  swi	u#1, [t#1, 0]
   11124: 0e 00 17 0f 01 08    hl.lui	32784,	->u
   1112a: 06 f8        c.movr	zero,	->t
   1112c: 3a 07        c.sdi	t#1, [u#1, 0]
   1112e: 0e 00 97 8f 01 08    hl.lui	32792,	->t
   11134: 59 30 81 01  sdi	a0, [t#1, 0]
   11138: 0e 10 97 4f 00 00    hl.lui	268435460,	->t
   1113e: 59 a0 8e 01  swi	u#2, [t#1, 0]

0000000000011142 <.LBB0_136>:
   11142: 02 00        C.BSTART	DIRECT, 0x11142

0000000000011144 <.LBB0_137>:
   11144: 00 08        C.BSTART.STD
   11146: b5 01 00 05  addiw	zero, 80,	->a1
   1114a: 56 10        c.movi	1,	->a0

000000000001114c <.LBB0_138>:
   1114c: 04 00        C.BSTART	COND, 0x1114c
   1114e: 35 af f1 0f  andiw	a1, 255,	->u
   11152: 97 0f 00 10  lui	65536,	->t
   11156: 59 20 8e 01  swi	u#1, [t#1, 0]
   1115a: 87 4f 00 00  addtpc	4,	->t
   1115e: 95 0f ec 64  addi	t#1, 1614,	->t
   11162: 89 01 81 07  lb	[a0, t#1],	->a1
   11166: 15 01 11 00  addi	a0, 1,	->a0
   1116a: b6 80        c.setc.ne	a0, s5
   1116c: 00 08        C.BSTART.STD
   1116e: b5 01 00 02  addiw	zero, 32,	->a1
   11172: 56 10        c.movi	1,	->a0

0000000000011174 <.LBB0_140>:
   11174: 04 00        C.BSTART	COND, 0x11174
   11176: 35 af f1 0f  andiw	a1, 255,	->u
   1117a: 97 0f 00 10  lui	65536,	->t
   1117e: 59 20 8e 01  swi	u#1, [t#1, 0]
   11182: 87 4f 00 00  addtpc	4,	->t
   11186: 95 0f 0c 7d  addi	t#1, 2000,	->t
   1118a: 89 01 81 07  lb	[a0, t#1],	->a1
   1118e: 15 01 11 00  addi	a0, 1,	->a0
   11192: b6 88        c.setc.ne	a0, s6
   11194: 00 08        C.BSTART.STD
   11196: 35 01 c0 01  addiw	zero, 28,	->a0

000000000001119a <.LBB0_142>:
   1119a: 04 00        C.BSTART	COND, 0x1119a
   1119c: 85 7f c1 00  sll	a0, s1,	->t
   111a0: 05 5f cc 00  srl	t#1, s1,	->u
   111a4: 0e 00 97 0f 03 0f    hl.lui	61488,	->t
   111aa: a5 5f cc 01  srlw	t#1, u#1,	->t
   111ae: 15 2f fc 00  andi	t#1, 15,	->u
   111b2: 87 4f 00 00  addtpc	4,	->t
   111b6: 95 0f ac 5f  addi	t#1, 1530,	->t
   111ba: 09 4f 8e 07  lbu	[u#1, t#1],	->u
   111be: 97 0f 00 10  lui	65536,	->t
   111c2: 59 20 8e 01  swi	u#1, [t#1, 0]
   111c6: 25 01 e1 06  addw	a0, s3,	->a0
   111ca: 9c 50        c.sext.w	a0,	->t
   111cc: 36 7e        c.setc.ne	t#1, s4
   111ce: 00 08        C.BSTART.STD
   111d0: 06 10        c.movr	zero,	->a0
   111d2: b5 01 a0 03  addiw	zero, 58,	->a1

00000000000111d6 <.LBB0_144>:
   111d6: 04 00        C.BSTART	COND, 0x111d6
   111d8: 35 af f1 0f  andiw	a1, 255,	->u
   111dc: 97 0f 00 10  lui	65536,	->t
   111e0: 59 20 8e 01  swi	u#1, [t#1, 0]
   111e4: 87 4f 00 00  addtpc	4,	->t
   111e8: 95 0f bc 7d  addi	t#1, 2011,	->t
   111ec: 89 01 81 07  lb	[a0, t#1],	->a1
   111f0: 15 01 11 00  addi	a0, 1,	->a0
   111f4: b6 68        c.setc.ne	a0, s2
   111f6: 0e 00 01 40 9c 0d 07 65 02 00HL.BSTART.STD	CALL, 0x14866, ra=.LBB0_416
   11200: 2e 40 17 01 00 40    hl.lui	1076101120,	->a0
   11206: 05 71 c1 00  sll	a0, s1,	->a0
   1120a: 0e 00 97 01 00 00    hl.lui	0,	->a1
   11210: 85 f1 c1 00  sll	a1, s1,	->a1
   11214: 85 d1 c1 00  srl	a1, s1,	->a1
   11218: 05 31 31 06  or	a0, a1,	->a0
   1121c: 59 30 11 0a  sdi	a0, [sp, 40]
   11220: 0e 40 17 01 00 00    hl.lui	1073741824,	->a0
   11226: 05 71 c1 00  sll	a0, s1,	->a0
   1122a: 05 31 31 06  or	a0, a1,	->a0
   1122e: 59 30 11 08  sdi	a0, [sp, 32]
   11232: 1e 40 17 01 00 40    hl.lui	1075052544,	->a0
   11238: 05 71 c1 00  sll	a0, s1,	->a0
   1123c: 85 39 31 06  or	a0, a1,	->s8
   11240: 19 b1 50 00  ldi	[sp, 40],	->a0
   11244: 99 b1 40 00  ldi	[sp, 32],	->a1

0000000000011248 <.LBB0_416>:
   11248: 54 02        C.BSTART	COND, 0x11292
   1124a: 86 58        c.movr	a0,	->s0
   1124c: e6 9a        c.setc.eq	s0, s8
   1124e: 0e 00 01 40 56 0c d6 54      HL.BSTART.STD	CALL, 0x143a6, ra=.LBB0_415
   11256: fe 7f 17 f1 ff ff    hl.lui	2147483647,	->a0
   1125c: 05 71 c1 00  sll	a0, s1,	->a0
   11260: fe ff 97 f1 ff ff    hl.lui	4294967295,	->a1
   11266: 85 f1 c1 00  sll	a1, s1,	->a1
   1126a: 85 d1 c1 00  srl	a1, s1,	->a1
   1126e: 85 39 31 06  or	a0, a1,	->s8
   11272: 0e 00 b9 61 cb 22    hl.lwu.pcr	[0x4596],	->a1
   11278: c6 12        c.movr	s0,	->a0

000000000001127a <.LBB0_415>:
   1127a: 01 b0 2f 06  BSTART.STD	COND, 0x12b38
   1127e: 05 2f 31 07  and	a0, s8,	->u
   11282: 0e 00 b9 3f d3 22    hl.ld.pcr	[0x45a6],	->t
   11288: db 2f cc 01  flt.fd	t#1, u#1,	->t
   1128c: 95 4f 1c 00  xori	t#1, 1,	->t
   11290: 26 06        c.setc.eq	t#1, zero

0000000000011292 <.LBB0_150>:
   11292: 00 08        C.BSTART.STD
   11294: b5 01 00 05  addiw	zero, 80,	->a1
   11298: 56 10        c.movi	1,	->a0

000000000001129a <.LBB0_151>:
   1129a: 04 00        C.BSTART	COND, 0x1129a
   1129c: 35 af f1 0f  andiw	a1, 255,	->u
   112a0: 97 0f 00 10  lui	65536,	->t
   112a4: 59 20 8e 01  swi	u#1, [t#1, 0]
   112a8: 87 4f 00 00  addtpc	4,	->t
   112ac: 95 0f ec 64  addi	t#1, 1614,	->t
   112b0: 89 01 81 07  lb	[a0, t#1],	->a1
   112b4: 15 01 11 00  addi	a0, 1,	->a0
   112b8: b6 80        c.setc.ne	a0, s5
   112ba: 00 08        C.BSTART.STD
   112bc: b5 01 00 02  addiw	zero, 32,	->a1
   112c0: 56 10        c.movi	1,	->a0

00000000000112c2 <.LBB0_153>:
   112c2: 04 00        C.BSTART	COND, 0x112c2
   112c4: 35 af f1 0f  andiw	a1, 255,	->u
   112c8: 97 0f 00 10  lui	65536,	->t
   112cc: 59 20 8e 01  swi	u#1, [t#1, 0]
   112d0: 87 4f 00 00  addtpc	4,	->t
   112d4: 95 0f 0c 7d  addi	t#1, 2000,	->t
   112d8: 89 01 81 07  lb	[a0, t#1],	->a1
   112dc: 15 01 11 00  addi	a0, 1,	->a0
   112e0: b6 88        c.setc.ne	a0, s6
   112e2: 00 08        C.BSTART.STD
   112e4: 35 01 c0 01  addiw	zero, 28,	->a0

00000000000112e8 <.LBB0_155>:
   112e8: 04 00        C.BSTART	COND, 0x112e8
   112ea: 85 7f c1 00  sll	a0, s1,	->t
   112ee: 05 5f cc 00  srl	t#1, s1,	->u
   112f2: 0e 00 97 1f 03 0f    hl.lui	61489,	->t
   112f8: a5 5f cc 01  srlw	t#1, u#1,	->t
   112fc: 15 2f fc 00  andi	t#1, 15,	->u
   11300: 87 4f 00 00  addtpc	4,	->t
   11304: 95 0f ac 5f  addi	t#1, 1530,	->t
   11308: 09 4f 8e 07  lbu	[u#1, t#1],	->u
   1130c: 97 0f 00 10  lui	65536,	->t
   11310: 59 20 8e 01  swi	u#1, [t#1, 0]
   11314: 25 01 e1 06  addw	a0, s3,	->a0
   11318: 9c 50        c.sext.w	a0,	->t
   1131a: 36 7e        c.setc.ne	t#1, s4
   1131c: 00 08        C.BSTART.STD
   1131e: 06 10        c.movr	zero,	->a0
   11320: b5 01 a0 03  addiw	zero, 58,	->a1

0000000000011324 <.LBB0_157>:
   11324: 04 00        C.BSTART	COND, 0x11324
   11326: 35 af f1 0f  andiw	a1, 255,	->u
   1132a: 97 0f 00 10  lui	65536,	->t
   1132e: 59 20 8e 01  swi	u#1, [t#1, 0]
   11332: 87 4f 00 00  addtpc	4,	->t
   11336: 95 0f bc 7d  addi	t#1, 2011,	->t
   1133a: 89 01 81 07  lb	[a0, t#1],	->a1
   1133e: 15 01 11 00  addi	a0, 1,	->a0
   11342: b6 68        c.setc.ne	a0, s2
   11344: 44 03        C.BSTART	COND, 0x113ac
   11346: 1e 40 97 0f 00 e0    hl.lui	1075707904,	->t
   1134c: 05 7f cc 00  sll	t#1, s1,	->u
   11350: 0e 00 97 0f 00 00    hl.lui	0,	->t
   11356: 85 7f cc 00  sll	t#1, s1,	->t
   1135a: 85 5f cc 00  srl	t#1, s1,	->t
   1135e: 38 c7        c.or	u#1, t#1,	->t
   11360: 7a 28        c.sdi	t#1, [sp, 40]
   11362: 99 b5 50 00  ldi	[sp, 40],	->s0
   11366: e6 c2        c.setc.eq	s0, t#1
   11368: 0e 00 01 c0 0f 0c d6 54      HL.BSTART.STD	CALL, 0x143a6, ra=.LBB0_414
   11370: fe 7f 17 f1 ff ff    hl.lui	2147483647,	->a0
   11376: 05 71 c1 00  sll	a0, s1,	->a0
   1137a: fe ff 97 f1 ff ff    hl.lui	4294967295,	->a1
   11380: 85 f1 c1 00  sll	a1, s1,	->a1
   11384: 85 d1 c1 00  srl	a1, s1,	->a1
   11388: 85 39 31 06  or	a0, a1,	->s8
   1138c: 0e 00 b9 61 44 22    hl.lwu.pcr	[0x4488],	->a1
   11392: c6 12        c.movr	s0,	->a0

0000000000011394 <.LBB0_414>:
   11394: 01 30 fe 05  BSTART.STD	COND, 0x12b8c
   11398: 05 2f 31 07  and	a0, s8,	->u
   1139c: 0e 00 b9 3f 46 22    hl.ld.pcr	[0x448c],	->t
   113a2: db 2f cc 01  flt.fd	t#1, u#1,	->t
   113a6: 95 4f 1c 00  xori	t#1, 1,	->t
   113aa: 26 06        c.setc.eq	t#1, zero

00000000000113ac <.LBB0_163>:
   113ac: 00 08        C.BSTART.STD
   113ae: b5 01 00 05  addiw	zero, 80,	->a1
   113b2: 56 10        c.movi	1,	->a0

00000000000113b4 <.LBB0_164>:
   113b4: 04 00        C.BSTART	COND, 0x113b4
   113b6: 35 af f1 0f  andiw	a1, 255,	->u
   113ba: 97 0f 00 10  lui	65536,	->t
   113be: 59 20 8e 01  swi	u#1, [t#1, 0]
   113c2: 87 4f 00 00  addtpc	4,	->t
   113c6: 95 0f ec 64  addi	t#1, 1614,	->t
   113ca: 89 01 81 07  lb	[a0, t#1],	->a1
   113ce: 15 01 11 00  addi	a0, 1,	->a0
   113d2: b6 80        c.setc.ne	a0, s5
   113d4: 00 08        C.BSTART.STD
   113d6: b5 01 00 02  addiw	zero, 32,	->a1
   113da: 56 10        c.movi	1,	->a0

00000000000113dc <.LBB0_166>:
   113dc: 04 00        C.BSTART	COND, 0x113dc
   113de: 35 af f1 0f  andiw	a1, 255,	->u
   113e2: 97 0f 00 10  lui	65536,	->t
   113e6: 59 20 8e 01  swi	u#1, [t#1, 0]
   113ea: 87 4f 00 00  addtpc	4,	->t
   113ee: 95 0f 0c 7d  addi	t#1, 2000,	->t
   113f2: 89 01 81 07  lb	[a0, t#1],	->a1
   113f6: 15 01 11 00  addi	a0, 1,	->a0
   113fa: b6 88        c.setc.ne	a0, s6
   113fc: 00 08        C.BSTART.STD
   113fe: 35 01 c0 01  addiw	zero, 28,	->a0

0000000000011402 <.LBB0_168>:
   11402: 04 00        C.BSTART	COND, 0x11402
   11404: 85 7f c1 00  sll	a0, s1,	->t
   11408: 05 5f cc 00  srl	t#1, s1,	->u
   1140c: 0e 00 97 0f 04 0f    hl.lui	61504,	->t
   11412: a5 5f cc 01  srlw	t#1, u#1,	->t
   11416: 15 2f fc 00  andi	t#1, 15,	->u
   1141a: 87 4f 00 00  addtpc	4,	->t
   1141e: 95 0f ac 5f  addi	t#1, 1530,	->t
   11422: 09 4f 8e 07  lbu	[u#1, t#1],	->u
   11426: 97 0f 00 10  lui	65536,	->t
   1142a: 59 20 8e 01  swi	u#1, [t#1, 0]
   1142e: 25 01 e1 06  addw	a0, s3,	->a0
   11432: 9c 50        c.sext.w	a0,	->t
   11434: 36 7e        c.setc.ne	t#1, s4
   11436: 00 08        C.BSTART.STD
   11438: 06 10        c.movr	zero,	->a0
   1143a: b5 01 a0 03  addiw	zero, 58,	->a1

000000000001143e <.LBB0_170>:
   1143e: 04 00        C.BSTART	COND, 0x1143e
   11440: 35 af f1 0f  andiw	a1, 255,	->u
   11444: 97 0f 00 10  lui	65536,	->t
   11448: 59 20 8e 01  swi	u#1, [t#1, 0]
   1144c: 87 4f 00 00  addtpc	4,	->t
   11450: 95 0f bc 7d  addi	t#1, 2011,	->t
   11454: 89 01 81 07  lb	[a0, t#1],	->a1
   11458: 15 01 11 00  addi	a0, 1,	->a0
   1145c: b6 68        c.setc.ne	a0, s2
   1145e: 01 c0 20 06 56 50    BSTART.STD	CALL, 0x12ce0, ra=.LBB0_413

0000000000011464 <.LBB0_413>:
   11464: 00 08        C.BSTART.STD
   11466: b5 01 00 05  addiw	zero, 80,	->a1
   1146a: 56 10        c.movi	1,	->a0

000000000001146c <.LBB0_172>:
   1146c: 04 00        C.BSTART	COND, 0x1146c
   1146e: 35 af f1 0f  andiw	a1, 255,	->u
   11472: 97 0f 00 10  lui	65536,	->t
   11476: 59 20 8e 01  swi	u#1, [t#1, 0]
   1147a: 87 4f 00 00  addtpc	4,	->t
   1147e: 95 0f ec 64  addi	t#1, 1614,	->t
   11482: 89 01 81 07  lb	[a0, t#1],	->a1
   11486: 15 01 11 00  addi	a0, 1,	->a0
   1148a: b6 80        c.setc.ne	a0, s5
   1148c: 00 08        C.BSTART.STD
   1148e: b5 01 00 02  addiw	zero, 32,	->a1
   11492: 56 10        c.movi	1,	->a0

0000000000011494 <.LBB0_174>:
   11494: 04 00        C.BSTART	COND, 0x11494
   11496: 35 af f1 0f  andiw	a1, 255,	->u
   1149a: 97 0f 00 10  lui	65536,	->t
   1149e: 59 20 8e 01  swi	u#1, [t#1, 0]
   114a2: 87 4f 00 00  addtpc	4,	->t
   114a6: 95 0f 0c 7d  addi	t#1, 2000,	->t
   114aa: 89 01 81 07  lb	[a0, t#1],	->a1
   114ae: 15 01 11 00  addi	a0, 1,	->a0
   114b2: b6 88        c.setc.ne	a0, s6
   114b4: 00 08        C.BSTART.STD
   114b6: 35 01 c0 01  addiw	zero, 28,	->a0

00000000000114ba <.LBB0_176>:
   114ba: 04 00        C.BSTART	COND, 0x114ba
   114bc: 85 7f c1 00  sll	a0, s1,	->t
   114c0: 05 5f cc 00  srl	t#1, s1,	->u
   114c4: 0e 00 97 1f 04 0f    hl.lui	61505,	->t
   114ca: a5 5f cc 01  srlw	t#1, u#1,	->t
   114ce: 15 2f fc 00  andi	t#1, 15,	->u
   114d2: 87 4f 00 00  addtpc	4,	->t
   114d6: 95 0f ac 5f  addi	t#1, 1530,	->t
   114da: 09 4f 8e 07  lbu	[u#1, t#1],	->u
   114de: 97 0f 00 10  lui	65536,	->t
   114e2: 59 20 8e 01  swi	u#1, [t#1, 0]
   114e6: 25 01 e1 06  addw	a0, s3,	->a0
   114ea: 9c 50        c.sext.w	a0,	->t
   114ec: 36 7e        c.setc.ne	t#1, s4
   114ee: 00 08        C.BSTART.STD
   114f0: 06 10        c.movr	zero,	->a0
   114f2: b5 01 a0 03  addiw	zero, 58,	->a1

00000000000114f6 <.LBB0_178>:
   114f6: 04 00        C.BSTART	COND, 0x114f6
   114f8: 35 af f1 0f  andiw	a1, 255,	->u
   114fc: 97 0f 00 10  lui	65536,	->t
   11500: 59 20 8e 01  swi	u#1, [t#1, 0]
   11504: 87 4f 00 00  addtpc	4,	->t
   11508: 95 0f bc 7d  addi	t#1, 2011,	->t
   1150c: 89 01 81 07  lb	[a0, t#1],	->a1
   11510: 15 01 11 00  addi	a0, 1,	->a0
   11514: b6 68        c.setc.ne	a0, s2
   11516: 94 0f        C.BSTART	COND, 0x11708
   11518: fe 3f 97 0f 00 80    hl.lui	1073217536,	->t
   1151e: 05 7f cc 00  sll	t#1, s1,	->u
   11522: 0e 00 97 0f 00 00    hl.lui	0,	->t
   11528: 85 7f cc 00  sll	t#1, s1,	->t
   1152c: 85 5f cc 00  srl	t#1, s1,	->t
   11530: 38 c7        c.or	u#1, t#1,	->t
   11532: 7a 28        c.sdi	t#1, [sp, 40]
   11534: fe 3f 97 9f 99 99    hl.lui	1073322393,	->t
   1153a: 05 7f cc 00  sll	t#1, s1,	->u
   1153e: 9e 99 97 af 99 99    hl.lui	2576980378,	->t
   11544: 85 7f cc 00  sll	t#1, s1,	->t
   11548: 85 5f cc 00  srl	t#1, s1,	->t
   1154c: 38 c7        c.or	u#1, t#1,	->t
   1154e: 7a 20        c.sdi	t#1, [sp, 32]
   11550: 19 bf 50 00  ldi	[sp, 40],	->u
   11554: 5a 20        c.ldi	[sp, 32],	->t
   11556: db 0f 8e 01  feq.fd	u#1, t#1,	->t
   1155a: 95 4f 1c 00  xori	t#1, 1,	->t
   1155e: 36 06        c.setc.ne	t#1, zero
   11560: 00 08        C.BSTART.STD
   11562: b5 01 60 04  addiw	zero, 70,	->a1
   11566: 56 10        c.movi	1,	->a0

0000000000011568 <.LBB0_181>:
   11568: 04 00        C.BSTART	COND, 0x11568
   1156a: 35 af f1 0f  andiw	a1, 255,	->u
   1156e: 97 0f 00 10  lui	65536,	->t
   11572: 59 20 8e 01  swi	u#1, [t#1, 0]
   11576: 87 4f 00 00  addtpc	4,	->t
   1157a: 95 0f ec 68  addi	t#1, 1678,	->t
   1157e: 89 01 81 07  lb	[a0, t#1],	->a1
   11582: 15 01 11 00  addi	a0, 1,	->a0
   11586: b6 80        c.setc.ne	a0, s5
   11588: 00 08        C.BSTART.STD
   1158a: 06 18        c.movr	zero,	->a1
   1158c: 35 02 00 02  addiw	zero, 32,	->a2
   11590: 15 01 00 01  addi	zero, 16,	->a0

0000000000011594 <.LBB0_183>:
   11594: 04 00        C.BSTART	COND, 0x11594
   11596: 35 2f f2 0f  andiw	a2, 255,	->u
   1159a: 97 0f 00 10  lui	65536,	->t
   1159e: 59 20 8e 01  swi	u#1, [t#1, 0]
   115a2: 87 4f 00 00  addtpc	4,	->t
   115a6: 95 0f 6c 75  addi	t#1, 1878,	->t
   115aa: 09 82 81 07  lb	[a1, t#1],	->a2
   115ae: 95 81 11 00  addi	a1, 1,	->a1
   115b2: f6 10        c.setc.ne	a1, a0
   115b4: 00 08        C.BSTART.STD
   115b6: 35 13 00 02  subiw	zero, 32,	->a4
   115ba: b5 01 00 03  addiw	zero, 48,	->a1
   115be: 16 21        c.movi	4,	->a2
   115c0: 06 28        c.movr	zero,	->a3

00000000000115c2 <.LBB0_185>:
   115c2: 04 00        C.BSTART	COND, 0x115c2
   115c4: 97 0f 00 10  lui	65536,	->t
   115c8: 59 a0 81 01  swi	a1, [t#1, 0]
   115cc: 25 03 43 06  addw	a4, a2,	->a4
   115d0: 9c 51        c.sext.w	a4,	->t
   115d2: 36 2e        c.setc.ne	t#1, a3
   115d4: 00 08        C.BSTART.STD
   115d6: 35 13 00 02  subiw	zero, 32,	->a4

00000000000115da <.LBB0_187>:
   115da: 04 00        C.BSTART	COND, 0x115da
   115dc: 97 0f 00 10  lui	65536,	->t
   115e0: 59 a0 81 01  swi	a1, [t#1, 0]
   115e4: 25 03 43 06  addw	a4, a2,	->a4
   115e8: 9c 51        c.sext.w	a4,	->t
   115ea: 36 2e        c.setc.ne	t#1, a3
   115ec: 00 08        C.BSTART.STD
   115ee: 56 33        c.movi	13,	->a4

00000000000115f0 <.LBB0_189>:
   115f0: 04 00        C.BSTART	COND, 0x115f0
   115f2: 35 2f f3 0f  andiw	a4, 255,	->u
   115f6: 97 0f 00 10  lui	65536,	->t
   115fa: 59 20 8e 01  swi	u#1, [t#1, 0]
   115fe: 87 4f 00 00  addtpc	4,	->t
   11602: 95 0f 9c 68  addi	t#1, 1673,	->t
   11606: 09 83 82 07  lb	[a3, t#1],	->a4
   1160a: 95 82 12 00  addi	a3, 1,	->a3
   1160e: 76 69        c.setc.ne	a3, s2
   11610: 00 08        C.BSTART.STD
   11612: 06 28        c.movr	zero,	->a3
   11614: 35 03 00 02  addiw	zero, 32,	->a4

0000000000011618 <.LBB0_191>:
   11618: 04 00        C.BSTART	COND, 0x11618
   1161a: 35 2f f3 0f  andiw	a4, 255,	->u
   1161e: 97 0f 00 10  lui	65536,	->t
   11622: 59 20 8e 01  swi	u#1, [t#1, 0]
   11626: 87 4f 00 00  addtpc	4,	->t
   1162a: 95 0f 0c 71  addi	t#1, 1808,	->t
   1162e: 09 83 82 07  lb	[a3, t#1],	->a4
   11632: 95 82 12 00  addi	a3, 1,	->a3
   11636: 76 11        c.setc.ne	a3, a0
   11638: 00 08        C.BSTART.STD
   1163a: 35 11 00 02  subiw	zero, 32,	->a0
   1163e: 06 28        c.movr	zero,	->a3

0000000000011640 <.LBB0_193>:
   11640: 04 00        C.BSTART	COND, 0x11640
   11642: 97 0f 00 10  lui	65536,	->t
   11646: 59 a0 81 01  swi	a1, [t#1, 0]
   1164a: 25 01 41 06  addw	a0, a2,	->a0
   1164e: 9c 50        c.sext.w	a0,	->t
   11650: 36 2e        c.setc.ne	t#1, a3
   11652: 00 08        C.BSTART.STD
   11654: b5 01 c0 01  addiw	zero, 28,	->a1
   11658: 56 10        c.movi	1,	->a0

000000000001165a <.LBB0_195>:
   1165a: 04 00        C.BSTART	COND, 0x1165a
   1165c: 85 ff c1 00  sll	a1, s1,	->t
   11660: 85 5f cc 00  srl	t#1, s1,	->t
   11664: 05 5f 81 01  srl	a0, t#1,	->u
   11668: 87 4f 00 00  addtpc	4,	->t
   1166c: 95 0f ac 5f  addi	t#1, 1530,	->t
   11670: 09 4f 8e 07  lbu	[u#1, t#1],	->u
   11674: 97 0f 00 10  lui	65536,	->t
   11678: 59 20 8e 01  swi	u#1, [t#1, 0]
   1167c: a5 81 e1 06  addw	a1, s3,	->a1
   11680: dc 50        c.sext.w	a1,	->t
   11682: 36 7e        c.setc.ne	t#1, s4
   11684: 00 08        C.BSTART.STD
   11686: 56 1b        c.movi	13,	->a1

0000000000011688 <.LBB0_197>:
   11688: 04 00        C.BSTART	COND, 0x11688
   1168a: 35 af f1 0f  andiw	a1, 255,	->u
   1168e: 97 0f 00 10  lui	65536,	->t
   11692: 59 20 8e 01  swi	u#1, [t#1, 0]
   11696: 87 4f 00 00  addtpc	4,	->t
   1169a: 95 0f 9c 68  addi	t#1, 1673,	->t
   1169e: 89 81 82 07  lb	[a3, t#1],	->a1
   116a2: 95 82 12 00  addi	a3, 1,	->a3
   116a6: 76 69        c.setc.ne	a3, s2
   116a8: 00 08        C.BSTART.STD
   116aa: 0e 00 97 cf 04 00    hl.lui	76,	->t
   116b0: 05 7f cc 00  sll	t#1, s1,	->u
   116b4: 4e 58 97 3f 45 55    hl.lui	1480938579,	->t
   116ba: 85 7f cc 00  sll	t#1, s1,	->t
   116be: 85 5f cc 00  srl	t#1, s1,	->t
   116c2: 05 3f 8e 07  or	u#1, t#1,	->u
   116c6: 97 8f 00 00  lui	8,	->t
   116ca: 59 30 8e 01  sdi	u#1, [t#1, 0]
   116ce: 0e 00 17 8f 00 08    hl.lui	32776,	->u
   116d4: 0e 00 97 1f 04 0f    hl.lui	61505,	->t
   116da: 2a 07        c.swi	t#1, [u#1, 0]
   116dc: 0e 00 97 cf 00 08    hl.lui	32780,	->t
   116e2: 56 f0        c.movi	1,	->u
   116e4: 59 20 8e 01  swi	u#1, [t#1, 0]
   116e8: 0e 00 17 0f 01 08    hl.lui	32784,	->u
   116ee: 06 f8        c.movr	zero,	->t
   116f0: 3a 07        c.sdi	t#1, [u#1, 0]
   116f2: 0e 00 97 8f 01 08    hl.lui	32792,	->t
   116f8: 59 30 81 01  sdi	a0, [t#1, 0]
   116fc: 0e 10 97 4f 00 00    hl.lui	268435460,	->t
   11702: 59 a0 8e 01  swi	u#2, [t#1, 0]

0000000000011706 <.LBB0_199>:
   11706: 02 00        C.BSTART	DIRECT, 0x11706

0000000000011708 <.LBB0_200>:
   11708: 00 08        C.BSTART.STD
   1170a: b5 01 00 05  addiw	zero, 80,	->a1
   1170e: 56 10        c.movi	1,	->a0

0000000000011710 <.LBB0_201>:
   11710: 04 00        C.BSTART	COND, 0x11710
   11712: 35 af f1 0f  andiw	a1, 255,	->u
   11716: 97 0f 00 10  lui	65536,	->t
   1171a: 59 20 8e 01  swi	u#1, [t#1, 0]
   1171e: 87 4f 00 00  addtpc	4,	->t
   11722: 95 0f ec 64  addi	t#1, 1614,	->t
   11726: 89 01 81 07  lb	[a0, t#1],	->a1
   1172a: 15 01 11 00  addi	a0, 1,	->a0
   1172e: b6 80        c.setc.ne	a0, s5
   11730: 00 08        C.BSTART.STD
   11732: b5 01 00 02  addiw	zero, 32,	->a1
   11736: 56 10        c.movi	1,	->a0

0000000000011738 <.LBB0_203>:
   11738: 04 00        C.BSTART	COND, 0x11738
   1173a: 35 af f1 0f  andiw	a1, 255,	->u
   1173e: 97 0f 00 10  lui	65536,	->t
   11742: 59 20 8e 01  swi	u#1, [t#1, 0]
   11746: 87 4f 00 00  addtpc	4,	->t
   1174a: 95 0f 0c 7d  addi	t#1, 2000,	->t
   1174e: 89 01 81 07  lb	[a0, t#1],	->a1
   11752: 15 01 11 00  addi	a0, 1,	->a0
   11756: b6 88        c.setc.ne	a0, s6
   11758: 00 08        C.BSTART.STD
   1175a: 35 01 c0 01  addiw	zero, 28,	->a0

000000000001175e <.LBB0_205>:
   1175e: 04 00        C.BSTART	COND, 0x1175e
   11760: 85 7f c1 00  sll	a0, s1,	->t
   11764: 05 5f cc 00  srl	t#1, s1,	->u
   11768: 0e 00 97 0f 05 0f    hl.lui	61520,	->t
   1176e: a5 5f cc 01  srlw	t#1, u#1,	->t
   11772: 15 2f fc 00  andi	t#1, 15,	->u
   11776: 87 4f 00 00  addtpc	4,	->t
   1177a: 95 0f ac 5f  addi	t#1, 1530,	->t
   1177e: 09 4f 8e 07  lbu	[u#1, t#1],	->u
   11782: 97 0f 00 10  lui	65536,	->t
   11786: 59 20 8e 01  swi	u#1, [t#1, 0]
   1178a: 25 01 e1 06  addw	a0, s3,	->a0
   1178e: 9c 50        c.sext.w	a0,	->t
   11790: 36 7e        c.setc.ne	t#1, s4
   11792: 00 08        C.BSTART.STD
   11794: 06 10        c.movr	zero,	->a0
   11796: b5 01 a0 03  addiw	zero, 58,	->a1

000000000001179a <.LBB0_207>:
   1179a: 04 00        C.BSTART	COND, 0x1179a
   1179c: 35 af f1 0f  andiw	a1, 255,	->u
   117a0: 97 0f 00 10  lui	65536,	->t
   117a4: 59 20 8e 01  swi	u#1, [t#1, 0]
   117a8: 87 4f 00 00  addtpc	4,	->t
   117ac: 95 0f bc 7d  addi	t#1, 2011,	->t
   117b0: 89 01 81 07  lb	[a0, t#1],	->a1
   117b4: 15 01 11 00  addi	a0, 1,	->a0
   117b8: b6 68        c.setc.ne	a0, s2
   117ba: 74 16        C.BSTART	COND, 0x11a88
   117bc: fe 3f 97 0f 00 00    hl.lui	1072693248,	->t
   117c2: 85 7f cc 00  sll	t#1, s1,	->t
   117c6: 0e 00 97 0f 00 00    hl.lui	0,	->t
   117cc: 85 7f cc 00  sll	t#1, s1,	->t
   117d0: 05 5f cc 00  srl	t#1, s1,	->u
   117d4: b8 e6        c.or	t#3, u#1,	->t
   117d6: 7a 28        c.sdi	t#1, [sp, 40]
   117d8: 0e 40 97 0f 00 00    hl.lui	1073741824,	->t
   117de: 85 7f cc 00  sll	t#1, s1,	->t
   117e2: 38 e6        c.or	t#1, u#1,	->t
   117e4: 7a 20        c.sdi	t#1, [sp, 32]
   117e6: 19 bf 50 00  ldi	[sp, 40],	->u
   117ea: 5a 20        c.ldi	[sp, 32],	->t
   117ec: db 2f 8e 01  flt.fd	u#1, t#1,	->t
   117f0: 26 06        c.setc.eq	t#1, zero
   117f2: 00 08        C.BSTART.STD
   117f4: b5 01 00 05  addiw	zero, 80,	->a1
   117f8: 56 10        c.movi	1,	->a0

00000000000117fa <.LBB0_230>:
   117fa: 04 00        C.BSTART	COND, 0x117fa
   117fc: 35 af f1 0f  andiw	a1, 255,	->u
   11800: 97 0f 00 10  lui	65536,	->t
   11804: 59 20 8e 01  swi	u#1, [t#1, 0]
   11808: 87 4f 00 00  addtpc	4,	->t
   1180c: 95 0f ec 64  addi	t#1, 1614,	->t
   11810: 89 01 81 07  lb	[a0, t#1],	->a1
   11814: 15 01 11 00  addi	a0, 1,	->a0
   11818: b6 80        c.setc.ne	a0, s5
   1181a: 00 08        C.BSTART.STD
   1181c: b5 01 00 02  addiw	zero, 32,	->a1
   11820: 56 10        c.movi	1,	->a0

0000000000011822 <.LBB0_232>:
   11822: 04 00        C.BSTART	COND, 0x11822
   11824: 35 af f1 0f  andiw	a1, 255,	->u
   11828: 97 0f 00 10  lui	65536,	->t
   1182c: 59 20 8e 01  swi	u#1, [t#1, 0]
   11830: 87 4f 00 00  addtpc	4,	->t
   11834: 95 0f 0c 7d  addi	t#1, 2000,	->t
   11838: 89 01 81 07  lb	[a0, t#1],	->a1
   1183c: 15 01 11 00  addi	a0, 1,	->a0
   11840: b6 88        c.setc.ne	a0, s6
   11842: 00 08        C.BSTART.STD
   11844: 35 01 c0 01  addiw	zero, 28,	->a0

0000000000011848 <.LBB0_234>:
   11848: 04 00        C.BSTART	COND, 0x11848
   1184a: 85 7f c1 00  sll	a0, s1,	->t
   1184e: 05 5f cc 00  srl	t#1, s1,	->u
   11852: 0e 00 97 1f 05 0f    hl.lui	61521,	->t
   11858: a5 5f cc 01  srlw	t#1, u#1,	->t
   1185c: 15 2f fc 00  andi	t#1, 15,	->u
   11860: 87 4f 00 00  addtpc	4,	->t
   11864: 95 0f ac 5f  addi	t#1, 1530,	->t
   11868: 09 4f 8e 07  lbu	[u#1, t#1],	->u
   1186c: 97 0f 00 10  lui	65536,	->t
   11870: 59 20 8e 01  swi	u#1, [t#1, 0]
   11874: 25 01 e1 06  addw	a0, s3,	->a0
   11878: 9c 50        c.sext.w	a0,	->t
   1187a: 36 7e        c.setc.ne	t#1, s4
   1187c: 00 08        C.BSTART.STD
   1187e: 06 10        c.movr	zero,	->a0
   11880: b5 01 a0 03  addiw	zero, 58,	->a1

0000000000011884 <.LBB0_236>:
   11884: 04 00        C.BSTART	COND, 0x11884
   11886: 35 af f1 0f  andiw	a1, 255,	->u
   1188a: 97 0f 00 10  lui	65536,	->t
   1188e: 59 20 8e 01  swi	u#1, [t#1, 0]
   11892: 87 4f 00 00  addtpc	4,	->t
   11896: 95 0f bc 7d  addi	t#1, 2011,	->t
   1189a: 89 01 81 07  lb	[a0, t#1],	->a1
   1189e: 15 01 11 00  addi	a0, 1,	->a0
   118a2: b6 68        c.setc.ne	a0, s2
   118a4: 64 1c        C.BSTART	COND, 0x11c30
   118a6: 0e 40 97 0f 00 80    hl.lui	1074266112,	->t
   118ac: 85 7f cc 00  sll	t#1, s1,	->t
   118b0: 0e 00 97 0f 00 00    hl.lui	0,	->t
   118b6: 85 7f cc 00  sll	t#1, s1,	->t
   118ba: 05 5f cc 00  srl	t#1, s1,	->u
   118be: b8 e6        c.or	t#3, u#1,	->t
   118c0: 7a 28        c.sdi	t#1, [sp, 40]
   118c2: 0e 40 97 0f 00 00    hl.lui	1073741824,	->t
   118c8: 85 7f cc 00  sll	t#1, s1,	->t
   118cc: 38 e6        c.or	t#1, u#1,	->t
   118ce: 7a 20        c.sdi	t#1, [sp, 32]
   118d0: 19 bf 50 00  ldi	[sp, 40],	->u
   118d4: 5a 20        c.ldi	[sp, 32],	->t
   118d6: db 2f 8e 01  flt.fd	u#1, t#1,	->t
   118da: 95 4f 1c 00  xori	t#1, 1,	->t
   118de: 36 06        c.setc.ne	t#1, zero
   118e0: 00 08        C.BSTART.STD
   118e2: b5 01 60 04  addiw	zero, 70,	->a1
   118e6: 56 10        c.movi	1,	->a0

00000000000118e8 <.LBB0_239>:
   118e8: 04 00        C.BSTART	COND, 0x118e8
   118ea: 35 af f1 0f  andiw	a1, 255,	->u
   118ee: 97 0f 00 10  lui	65536,	->t
   118f2: 59 20 8e 01  swi	u#1, [t#1, 0]
   118f6: 87 4f 00 00  addtpc	4,	->t
   118fa: 95 0f ec 68  addi	t#1, 1678,	->t
   118fe: 89 01 81 07  lb	[a0, t#1],	->a1
   11902: 15 01 11 00  addi	a0, 1,	->a0
   11906: b6 80        c.setc.ne	a0, s5
   11908: 00 08        C.BSTART.STD
   1190a: 06 18        c.movr	zero,	->a1
   1190c: 35 02 00 02  addiw	zero, 32,	->a2
   11910: 15 01 00 01  addi	zero, 16,	->a0

0000000000011914 <.LBB0_241>:
   11914: 04 00        C.BSTART	COND, 0x11914
   11916: 35 2f f2 0f  andiw	a2, 255,	->u
   1191a: 97 0f 00 10  lui	65536,	->t
   1191e: 59 20 8e 01  swi	u#1, [t#1, 0]
   11922: 87 4f 00 00  addtpc	4,	->t
   11926: 95 0f 6c 75  addi	t#1, 1878,	->t
   1192a: 09 82 81 07  lb	[a1, t#1],	->a2
   1192e: 95 81 11 00  addi	a1, 1,	->a1
   11932: f6 10        c.setc.ne	a1, a0
   11934: 00 08        C.BSTART.STD
   11936: 35 13 00 02  subiw	zero, 32,	->a4
   1193a: b5 01 00 03  addiw	zero, 48,	->a1
   1193e: 16 21        c.movi	4,	->a2
   11940: 06 28        c.movr	zero,	->a3

0000000000011942 <.LBB0_243>:
   11942: 04 00        C.BSTART	COND, 0x11942
   11944: 97 0f 00 10  lui	65536,	->t
   11948: 59 a0 81 01  swi	a1, [t#1, 0]
   1194c: 25 03 43 06  addw	a4, a2,	->a4
   11950: 9c 51        c.sext.w	a4,	->t
   11952: 36 2e        c.setc.ne	t#1, a3
   11954: 00 08        C.BSTART.STD
   11956: 35 13 00 02  subiw	zero, 32,	->a4

000000000001195a <.LBB0_245>:
   1195a: 04 00        C.BSTART	COND, 0x1195a
   1195c: 97 0f 00 10  lui	65536,	->t
   11960: 59 a0 81 01  swi	a1, [t#1, 0]
   11964: 25 03 43 06  addw	a4, a2,	->a4
   11968: 9c 51        c.sext.w	a4,	->t
   1196a: 36 2e        c.setc.ne	t#1, a3
   1196c: 00 08        C.BSTART.STD
   1196e: 56 33        c.movi	13,	->a4

0000000000011970 <.LBB0_247>:
   11970: 04 00        C.BSTART	COND, 0x11970
   11972: 35 2f f3 0f  andiw	a4, 255,	->u
   11976: 97 0f 00 10  lui	65536,	->t
   1197a: 59 20 8e 01  swi	u#1, [t#1, 0]
   1197e: 87 4f 00 00  addtpc	4,	->t
   11982: 95 0f 9c 68  addi	t#1, 1673,	->t
   11986: 09 83 82 07  lb	[a3, t#1],	->a4
   1198a: 95 82 12 00  addi	a3, 1,	->a3
   1198e: 76 69        c.setc.ne	a3, s2
   11990: 00 08        C.BSTART.STD
   11992: 06 28        c.movr	zero,	->a3
   11994: 35 03 00 02  addiw	zero, 32,	->a4

0000000000011998 <.LBB0_249>:
   11998: 04 00        C.BSTART	COND, 0x11998
   1199a: 35 2f f3 0f  andiw	a4, 255,	->u
   1199e: 97 0f 00 10  lui	65536,	->t
   119a2: 59 20 8e 01  swi	u#1, [t#1, 0]
   119a6: 87 4f 00 00  addtpc	4,	->t
   119aa: 95 0f 0c 71  addi	t#1, 1808,	->t
   119ae: 09 83 82 07  lb	[a3, t#1],	->a4
   119b2: 95 82 12 00  addi	a3, 1,	->a3
   119b6: 76 11        c.setc.ne	a3, a0
   119b8: 00 08        C.BSTART.STD
   119ba: 35 11 00 02  subiw	zero, 32,	->a0
   119be: 06 28        c.movr	zero,	->a3

00000000000119c0 <.LBB0_251>:
   119c0: 04 00        C.BSTART	COND, 0x119c0
   119c2: 97 0f 00 10  lui	65536,	->t
   119c6: 59 a0 81 01  swi	a1, [t#1, 0]
   119ca: 25 01 41 06  addw	a0, a2,	->a0
   119ce: 9c 50        c.sext.w	a0,	->t
   119d0: 36 2e        c.setc.ne	t#1, a3
   119d2: 00 08        C.BSTART.STD
   119d4: b5 01 c0 01  addiw	zero, 28,	->a1
   119d8: 56 10        c.movi	1,	->a0

00000000000119da <.LBB0_253>:
   119da: 04 00        C.BSTART	COND, 0x119da
   119dc: 85 ff c1 00  sll	a1, s1,	->t
   119e0: 85 5f cc 00  srl	t#1, s1,	->t
   119e4: 05 5f 81 01  srl	a0, t#1,	->u
   119e8: 87 4f 00 00  addtpc	4,	->t
   119ec: 95 0f ac 5f  addi	t#1, 1530,	->t
   119f0: 09 4f 8e 07  lbu	[u#1, t#1],	->u
   119f4: 97 0f 00 10  lui	65536,	->t
   119f8: 59 20 8e 01  swi	u#1, [t#1, 0]
   119fc: a5 81 e1 06  addw	a1, s3,	->a1
   11a00: dc 50        c.sext.w	a1,	->t
   11a02: 36 7e        c.setc.ne	t#1, s4
   11a04: 00 08        C.BSTART.STD
   11a06: 56 1b        c.movi	13,	->a1

0000000000011a08 <.LBB0_255>:
   11a08: 04 00        C.BSTART	COND, 0x11a08
   11a0a: 35 af f1 0f  andiw	a1, 255,	->u
   11a0e: 97 0f 00 10  lui	65536,	->t
   11a12: 59 20 8e 01  swi	u#1, [t#1, 0]
   11a16: 87 4f 00 00  addtpc	4,	->t
   11a1a: 95 0f 9c 68  addi	t#1, 1673,	->t
   11a1e: 89 81 82 07  lb	[a3, t#1],	->a1
   11a22: 95 82 12 00  addi	a3, 1,	->a3
   11a26: 76 69        c.setc.ne	a3, s2
   11a28: 00 08        C.BSTART.STD
   11a2a: 0e 00 97 cf 04 00    hl.lui	76,	->t
   11a30: 05 7f cc 00  sll	t#1, s1,	->u
   11a34: 4e 58 97 3f 45 55    hl.lui	1480938579,	->t
   11a3a: 85 7f cc 00  sll	t#1, s1,	->t
   11a3e: 85 5f cc 00  srl	t#1, s1,	->t
   11a42: 05 3f 8e 07  or	u#1, t#1,	->u
   11a46: 97 8f 00 00  lui	8,	->t
   11a4a: 59 30 8e 01  sdi	u#1, [t#1, 0]
   11a4e: 0e 00 17 8f 00 08    hl.lui	32776,	->u
   11a54: 0e 00 97 1f 05 0f    hl.lui	61521,	->t
   11a5a: 2a 07        c.swi	t#1, [u#1, 0]
   11a5c: 0e 00 97 cf 00 08    hl.lui	32780,	->t
   11a62: 56 f0        c.movi	1,	->u
   11a64: 59 20 8e 01  swi	u#1, [t#1, 0]
   11a68: 0e 00 17 0f 01 08    hl.lui	32784,	->u
   11a6e: 06 f8        c.movr	zero,	->t
   11a70: 3a 07        c.sdi	t#1, [u#1, 0]
   11a72: 0e 00 97 8f 01 08    hl.lui	32792,	->t
   11a78: 59 30 81 01  sdi	a0, [t#1, 0]
   11a7c: 0e 10 97 4f 00 00    hl.lui	268435460,	->t
   11a82: 59 a0 8e 01  swi	u#2, [t#1, 0]

0000000000011a86 <.LBB0_257>:
   11a86: 02 00        C.BSTART	DIRECT, 0x11a86

0000000000011a88 <.LBB0_209>:
   11a88: 00 08        C.BSTART.STD
   11a8a: b5 01 60 04  addiw	zero, 70,	->a1
   11a8e: 56 10        c.movi	1,	->a0

0000000000011a90 <.LBB0_210>:
   11a90: 04 00        C.BSTART	COND, 0x11a90
   11a92: 35 af f1 0f  andiw	a1, 255,	->u
   11a96: 97 0f 00 10  lui	65536,	->t
   11a9a: 59 20 8e 01  swi	u#1, [t#1, 0]
   11a9e: 87 4f 00 00  addtpc	4,	->t
   11aa2: 95 0f ec 68  addi	t#1, 1678,	->t
   11aa6: 89 01 81 07  lb	[a0, t#1],	->a1
   11aaa: 15 01 11 00  addi	a0, 1,	->a0
   11aae: b6 80        c.setc.ne	a0, s5
   11ab0: 00 08        C.BSTART.STD
   11ab2: 06 10        c.movr	zero,	->a0
   11ab4: b5 01 00 02  addiw	zero, 32,	->a1
   11ab8: 95 02 00 01  addi	zero, 16,	->a3

0000000000011abc <.LBB0_212>:
   11abc: 04 00        C.BSTART	COND, 0x11abc
   11abe: 35 af f1 0f  andiw	a1, 255,	->u
   11ac2: 97 0f 00 10  lui	65536,	->t
   11ac6: 59 20 8e 01  swi	u#1, [t#1, 0]
   11aca: 87 4f 00 00  addtpc	4,	->t
   11ace: 95 0f 6c 75  addi	t#1, 1878,	->t
   11ad2: 89 01 81 07  lb	[a0, t#1],	->a1
   11ad6: 15 01 11 00  addi	a0, 1,	->a0
   11ada: b6 28        c.setc.ne	a0, a3
   11adc: 00 08        C.BSTART.STD
   11ade: 35 11 00 02  subiw	zero, 32,	->a0
   11ae2: b5 01 00 03  addiw	zero, 48,	->a1
   11ae6: 16 21        c.movi	4,	->a2
   11ae8: 06 30        c.movr	zero,	->a4

0000000000011aea <.LBB0_214>:
   11aea: 04 00        C.BSTART	COND, 0x11aea
   11aec: 97 0f 00 10  lui	65536,	->t
   11af0: 59 a0 81 01  swi	a1, [t#1, 0]
   11af4: 25 01 41 06  addw	a0, a2,	->a0
   11af8: 9c 50        c.sext.w	a0,	->t
   11afa: 36 36        c.setc.ne	t#1, a4
   11afc: 00 08        C.BSTART.STD
   11afe: b5 03 c0 01  addiw	zero, 28,	->a5
   11b02: 56 10        c.movi	1,	->a0

0000000000011b04 <.LBB0_216>:
   11b04: 04 00        C.BSTART	COND, 0x11b04
   11b06: 85 ff c3 00  sll	a5, s1,	->t
   11b0a: 85 5f cc 00  srl	t#1, s1,	->t
   11b0e: 05 5f 81 01  srl	a0, t#1,	->u
   11b12: 87 4f 00 00  addtpc	4,	->t
   11b16: 95 0f ac 5f  addi	t#1, 1530,	->t
   11b1a: 09 4f 8e 07  lbu	[u#1, t#1],	->u
   11b1e: 97 0f 00 10  lui	65536,	->t
   11b22: 59 20 8e 01  swi	u#1, [t#1, 0]
   11b26: a5 83 e3 06  addw	a5, s3,	->a5
   11b2a: dc 51        c.sext.w	a5,	->t
   11b2c: 36 7e        c.setc.ne	t#1, s4
   11b2e: 00 08        C.BSTART.STD
   11b30: 56 3b        c.movi	13,	->a5

0000000000011b32 <.LBB0_218>:
   11b32: 04 00        C.BSTART	COND, 0x11b32
   11b34: 35 af f3 0f  andiw	a5, 255,	->u
   11b38: 97 0f 00 10  lui	65536,	->t
   11b3c: 59 20 8e 01  swi	u#1, [t#1, 0]
   11b40: 87 4f 00 00  addtpc	4,	->t
   11b44: 95 0f 9c 68  addi	t#1, 1673,	->t
   11b48: 89 03 83 07  lb	[a4, t#1],	->a5
   11b4c: 15 03 13 00  addi	a4, 1,	->a4
   11b50: b6 69        c.setc.ne	a4, s2
   11b52: 00 08        C.BSTART.STD
   11b54: 06 30        c.movr	zero,	->a4
   11b56: b5 03 00 02  addiw	zero, 32,	->a5

0000000000011b5a <.LBB0_220>:
   11b5a: 04 00        C.BSTART	COND, 0x11b5a
   11b5c: 35 af f3 0f  andiw	a5, 255,	->u
   11b60: 97 0f 00 10  lui	65536,	->t
   11b64: 59 20 8e 01  swi	u#1, [t#1, 0]
   11b68: 87 4f 00 00  addtpc	4,	->t
   11b6c: 95 0f 0c 71  addi	t#1, 1808,	->t
   11b70: 89 03 83 07  lb	[a4, t#1],	->a5
   11b74: 15 03 13 00  addi	a4, 1,	->a4
   11b78: b6 29        c.setc.ne	a4, a3
   11b7a: 00 08        C.BSTART.STD
   11b7c: 35 13 00 02  subiw	zero, 32,	->a4
   11b80: 06 28        c.movr	zero,	->a3

0000000000011b82 <.LBB0_222>:
   11b82: 04 00        C.BSTART	COND, 0x11b82
   11b84: 97 0f 00 10  lui	65536,	->t
   11b88: 59 a0 81 01  swi	a1, [t#1, 0]
   11b8c: 25 03 43 06  addw	a4, a2,	->a4
   11b90: 9c 51        c.sext.w	a4,	->t
   11b92: 36 2e        c.setc.ne	t#1, a3
   11b94: 00 08        C.BSTART.STD
   11b96: 35 13 00 02  subiw	zero, 32,	->a4

0000000000011b9a <.LBB0_224>:
   11b9a: 04 00        C.BSTART	COND, 0x11b9a
   11b9c: 97 0f 00 10  lui	65536,	->t
   11ba0: 59 a0 81 01  swi	a1, [t#1, 0]
   11ba4: 25 03 43 06  addw	a4, a2,	->a4
   11ba8: 9c 51        c.sext.w	a4,	->t
   11baa: 36 2e        c.setc.ne	t#1, a3
   11bac: 00 08        C.BSTART.STD
   11bae: 56 1b        c.movi	13,	->a1

0000000000011bb0 <.LBB0_226>:
   11bb0: 04 00        C.BSTART	COND, 0x11bb0
   11bb2: 35 af f1 0f  andiw	a1, 255,	->u
   11bb6: 97 0f 00 10  lui	65536,	->t
   11bba: 59 20 8e 01  swi	u#1, [t#1, 0]
   11bbe: 87 4f 00 00  addtpc	4,	->t
   11bc2: 95 0f 9c 68  addi	t#1, 1673,	->t
   11bc6: 89 81 82 07  lb	[a3, t#1],	->a1
   11bca: 95 82 12 00  addi	a3, 1,	->a3
   11bce: 76 69        c.setc.ne	a3, s2
   11bd0: 00 08        C.BSTART.STD
   11bd2: 0e 00 97 cf 04 00    hl.lui	76,	->t
   11bd8: 05 7f cc 00  sll	t#1, s1,	->u
   11bdc: 4e 58 97 3f 45 55    hl.lui	1480938579,	->t
   11be2: 85 7f cc 00  sll	t#1, s1,	->t
   11be6: 85 5f cc 00  srl	t#1, s1,	->t
   11bea: 05 3f 8e 07  or	u#1, t#1,	->u
   11bee: 97 8f 00 00  lui	8,	->t
   11bf2: 59 30 8e 01  sdi	u#1, [t#1, 0]
   11bf6: 0e 00 17 8f 00 08    hl.lui	32776,	->u
   11bfc: 0e 00 97 0f 05 0f    hl.lui	61520,	->t
   11c02: 2a 07        c.swi	t#1, [u#1, 0]
   11c04: 0e 00 97 cf 00 08    hl.lui	32780,	->t
   11c0a: 56 f0        c.movi	1,	->u
   11c0c: 59 20 8e 01  swi	u#1, [t#1, 0]
   11c10: 0e 00 97 0f 01 08    hl.lui	32784,	->t
   11c16: 59 30 81 01  sdi	a0, [t#1, 0]
   11c1a: 0e 00 17 8f 01 08    hl.lui	32792,	->u
   11c20: 06 f8        c.movr	zero,	->t
   11c22: 3a 07        c.sdi	t#1, [u#1, 0]
   11c24: 0e 10 97 4f 00 00    hl.lui	268435460,	->t
   11c2a: 59 a0 8e 01  swi	u#2, [t#1, 0]

0000000000011c2e <.LBB0_228>:
   11c2e: 02 00        C.BSTART	DIRECT, 0x11c2e

0000000000011c30 <.LBB0_258>:
   11c30: 00 08        C.BSTART.STD
   11c32: b5 01 00 05  addiw	zero, 80,	->a1
   11c36: 56 10        c.movi	1,	->a0

0000000000011c38 <.LBB0_259>:
   11c38: 04 00        C.BSTART	COND, 0x11c38
   11c3a: 35 af f1 0f  andiw	a1, 255,	->u
   11c3e: 97 0f 00 10  lui	65536,	->t
   11c42: 59 20 8e 01  swi	u#1, [t#1, 0]
   11c46: 87 4f 00 00  addtpc	4,	->t
   11c4a: 95 0f ec 64  addi	t#1, 1614,	->t
   11c4e: 89 01 81 07  lb	[a0, t#1],	->a1
   11c52: 15 01 11 00  addi	a0, 1,	->a0
   11c56: b6 80        c.setc.ne	a0, s5
   11c58: 00 08        C.BSTART.STD
   11c5a: b5 01 00 02  addiw	zero, 32,	->a1
   11c5e: 56 10        c.movi	1,	->a0

0000000000011c60 <.LBB0_261>:
   11c60: 04 00        C.BSTART	COND, 0x11c60
   11c62: 35 af f1 0f  andiw	a1, 255,	->u
   11c66: 97 0f 00 10  lui	65536,	->t
   11c6a: 59 20 8e 01  swi	u#1, [t#1, 0]
   11c6e: 87 4f 00 00  addtpc	4,	->t
   11c72: 95 0f 0c 7d  addi	t#1, 2000,	->t
   11c76: 89 01 81 07  lb	[a0, t#1],	->a1
   11c7a: 15 01 11 00  addi	a0, 1,	->a0
   11c7e: b6 88        c.setc.ne	a0, s6
   11c80: 00 08        C.BSTART.STD
   11c82: 35 01 c0 01  addiw	zero, 28,	->a0

0000000000011c86 <.LBB0_263>:
   11c86: 04 00        C.BSTART	COND, 0x11c86
   11c88: 85 7f c1 00  sll	a0, s1,	->t
   11c8c: 05 5f cc 00  srl	t#1, s1,	->u
   11c90: 0e 00 97 0f 06 0f    hl.lui	61536,	->t
   11c96: a5 5f cc 01  srlw	t#1, u#1,	->t
   11c9a: 15 2f fc 00  andi	t#1, 15,	->u
   11c9e: 87 4f 00 00  addtpc	4,	->t
   11ca2: 95 0f ac 5f  addi	t#1, 1530,	->t
   11ca6: 09 4f 8e 07  lbu	[u#1, t#1],	->u
   11caa: 97 0f 00 10  lui	65536,	->t
   11cae: 59 20 8e 01  swi	u#1, [t#1, 0]
   11cb2: 25 01 e1 06  addw	a0, s3,	->a0
   11cb6: 9c 50        c.sext.w	a0,	->t
   11cb8: 36 7e        c.setc.ne	t#1, s4
   11cba: 00 08        C.BSTART.STD
   11cbc: 06 10        c.movr	zero,	->a0
   11cbe: b5 01 a0 03  addiw	zero, 58,	->a1

0000000000011cc2 <.LBB0_265>:
   11cc2: 04 00        C.BSTART	COND, 0x11cc2
   11cc4: 35 af f1 0f  andiw	a1, 255,	->u
   11cc8: 97 0f 00 10  lui	65536,	->t
   11ccc: 59 20 8e 01  swi	u#1, [t#1, 0]
   11cd0: 87 4f 00 00  addtpc	4,	->t
   11cd4: 95 0f bc 7d  addi	t#1, 2011,	->t
   11cd8: 89 01 81 07  lb	[a0, t#1],	->a1
   11cdc: 15 01 11 00  addi	a0, 1,	->a0
   11ce0: b6 68        c.setc.ne	a0, s2
   11ce2: a4 0e        C.BSTART	COND, 0x11eb6
   11ce4: fe 3f 97 0f 00 80    hl.lui	1073217536,	->t
   11cea: 05 7f cc 00  sll	t#1, s1,	->u
   11cee: 0e 00 97 0f 00 00    hl.lui	0,	->t
   11cf4: 85 7f cc 00  sll	t#1, s1,	->t
   11cf8: 85 5f cc 00  srl	t#1, s1,	->t
   11cfc: 38 c7        c.or	u#1, t#1,	->t
   11cfe: 7a 28        c.sdi	t#1, [sp, 40]
   11d00: 7a 20        c.sdi	t#1, [sp, 32]
   11d02: 19 bf 50 00  ldi	[sp, 40],	->u
   11d06: 5a 20        c.ldi	[sp, 32],	->t
   11d08: db 3f cc 01  fge.fd	t#1, u#1,	->t
   11d0c: 36 06        c.setc.ne	t#1, zero
   11d0e: 00 08        C.BSTART.STD
   11d10: b5 01 60 04  addiw	zero, 70,	->a1
   11d14: 56 10        c.movi	1,	->a0

0000000000011d16 <.LBB0_268>:
   11d16: 04 00        C.BSTART	COND, 0x11d16
   11d18: 35 af f1 0f  andiw	a1, 255,	->u
   11d1c: 97 0f 00 10  lui	65536,	->t
   11d20: 59 20 8e 01  swi	u#1, [t#1, 0]
   11d24: 87 4f 00 00  addtpc	4,	->t
   11d28: 95 0f ec 68  addi	t#1, 1678,	->t
   11d2c: 89 01 81 07  lb	[a0, t#1],	->a1
   11d30: 15 01 11 00  addi	a0, 1,	->a0
   11d34: b6 80        c.setc.ne	a0, s5
   11d36: 00 08        C.BSTART.STD
   11d38: 06 10        c.movr	zero,	->a0
   11d3a: b5 01 00 02  addiw	zero, 32,	->a1
   11d3e: 95 02 00 01  addi	zero, 16,	->a3

0000000000011d42 <.LBB0_270>:
   11d42: 04 00        C.BSTART	COND, 0x11d42
   11d44: 35 af f1 0f  andiw	a1, 255,	->u
   11d48: 97 0f 00 10  lui	65536,	->t
   11d4c: 59 20 8e 01  swi	u#1, [t#1, 0]
   11d50: 87 4f 00 00  addtpc	4,	->t
   11d54: 95 0f 6c 75  addi	t#1, 1878,	->t
   11d58: 89 01 81 07  lb	[a0, t#1],	->a1
   11d5c: 15 01 11 00  addi	a0, 1,	->a0
   11d60: b6 28        c.setc.ne	a0, a3
   11d62: 00 08        C.BSTART.STD
   11d64: 35 11 00 02  subiw	zero, 32,	->a0
   11d68: b5 01 00 03  addiw	zero, 48,	->a1
   11d6c: 16 21        c.movi	4,	->a2
   11d6e: 06 30        c.movr	zero,	->a4

0000000000011d70 <.LBB0_272>:
   11d70: 04 00        C.BSTART	COND, 0x11d70
   11d72: 97 0f 00 10  lui	65536,	->t
   11d76: 59 a0 81 01  swi	a1, [t#1, 0]
   11d7a: 25 01 41 06  addw	a0, a2,	->a0
   11d7e: 9c 50        c.sext.w	a0,	->t
   11d80: 36 36        c.setc.ne	t#1, a4
   11d82: 00 08        C.BSTART.STD
   11d84: b5 03 c0 01  addiw	zero, 28,	->a5
   11d88: 56 10        c.movi	1,	->a0

0000000000011d8a <.LBB0_274>:
   11d8a: 04 00        C.BSTART	COND, 0x11d8a
   11d8c: 85 ff c3 00  sll	a5, s1,	->t
   11d90: 85 5f cc 00  srl	t#1, s1,	->t
   11d94: 05 5f 81 01  srl	a0, t#1,	->u
   11d98: 87 4f 00 00  addtpc	4,	->t
   11d9c: 95 0f ac 5f  addi	t#1, 1530,	->t
   11da0: 09 4f 8e 07  lbu	[u#1, t#1],	->u
   11da4: 97 0f 00 10  lui	65536,	->t
   11da8: 59 20 8e 01  swi	u#1, [t#1, 0]
   11dac: a5 83 e3 06  addw	a5, s3,	->a5
   11db0: dc 51        c.sext.w	a5,	->t
   11db2: 36 7e        c.setc.ne	t#1, s4
   11db4: 00 08        C.BSTART.STD
   11db6: 56 3b        c.movi	13,	->a5

0000000000011db8 <.LBB0_276>:
   11db8: 04 00        C.BSTART	COND, 0x11db8
   11dba: 35 af f3 0f  andiw	a5, 255,	->u
   11dbe: 97 0f 00 10  lui	65536,	->t
   11dc2: 59 20 8e 01  swi	u#1, [t#1, 0]
   11dc6: 87 4f 00 00  addtpc	4,	->t
   11dca: 95 0f 9c 68  addi	t#1, 1673,	->t
   11dce: 89 03 83 07  lb	[a4, t#1],	->a5
   11dd2: 15 03 13 00  addi	a4, 1,	->a4
   11dd6: b6 69        c.setc.ne	a4, s2
   11dd8: 00 08        C.BSTART.STD
   11dda: 06 30        c.movr	zero,	->a4
   11ddc: b5 03 00 02  addiw	zero, 32,	->a5

0000000000011de0 <.LBB0_278>:
   11de0: 04 00        C.BSTART	COND, 0x11de0
   11de2: 35 af f3 0f  andiw	a5, 255,	->u
   11de6: 97 0f 00 10  lui	65536,	->t
   11dea: 59 20 8e 01  swi	u#1, [t#1, 0]
   11dee: 87 4f 00 00  addtpc	4,	->t
   11df2: 95 0f 0c 71  addi	t#1, 1808,	->t
   11df6: 89 03 83 07  lb	[a4, t#1],	->a5
   11dfa: 15 03 13 00  addi	a4, 1,	->a4
   11dfe: b6 29        c.setc.ne	a4, a3
   11e00: 00 08        C.BSTART.STD
   11e02: 35 13 00 02  subiw	zero, 32,	->a4
   11e06: 06 28        c.movr	zero,	->a3

0000000000011e08 <.LBB0_280>:
   11e08: 04 00        C.BSTART	COND, 0x11e08
   11e0a: 97 0f 00 10  lui	65536,	->t
   11e0e: 59 a0 81 01  swi	a1, [t#1, 0]
   11e12: 25 03 43 06  addw	a4, a2,	->a4
   11e16: 9c 51        c.sext.w	a4,	->t
   11e18: 36 2e        c.setc.ne	t#1, a3
   11e1a: 00 08        C.BSTART.STD
   11e1c: 35 13 00 02  subiw	zero, 32,	->a4

0000000000011e20 <.LBB0_282>:
   11e20: 04 00        C.BSTART	COND, 0x11e20
   11e22: 97 0f 00 10  lui	65536,	->t
   11e26: 59 a0 81 01  swi	a1, [t#1, 0]
   11e2a: 25 03 43 06  addw	a4, a2,	->a4
   11e2e: 9c 51        c.sext.w	a4,	->t
   11e30: 36 2e        c.setc.ne	t#1, a3
   11e32: 00 08        C.BSTART.STD
   11e34: 56 1b        c.movi	13,	->a1

0000000000011e36 <.LBB0_284>:
   11e36: 04 00        C.BSTART	COND, 0x11e36
   11e38: 35 af f1 0f  andiw	a1, 255,	->u
   11e3c: 97 0f 00 10  lui	65536,	->t
   11e40: 59 20 8e 01  swi	u#1, [t#1, 0]
   11e44: 87 4f 00 00  addtpc	4,	->t
   11e48: 95 0f 9c 68  addi	t#1, 1673,	->t
   11e4c: 89 81 82 07  lb	[a3, t#1],	->a1
   11e50: 95 82 12 00  addi	a3, 1,	->a3
   11e54: 76 69        c.setc.ne	a3, s2
   11e56: 00 08        C.BSTART.STD
   11e58: 0e 00 97 cf 04 00    hl.lui	76,	->t
   11e5e: 05 7f cc 00  sll	t#1, s1,	->u
   11e62: 4e 58 97 3f 45 55    hl.lui	1480938579,	->t
   11e68: 85 7f cc 00  sll	t#1, s1,	->t
   11e6c: 85 5f cc 00  srl	t#1, s1,	->t
   11e70: 05 3f 8e 07  or	u#1, t#1,	->u
   11e74: 97 8f 00 00  lui	8,	->t
   11e78: 59 30 8e 01  sdi	u#1, [t#1, 0]
   11e7c: 0e 00 17 8f 00 08    hl.lui	32776,	->u
   11e82: 0e 00 97 0f 06 0f    hl.lui	61536,	->t
   11e88: 2a 07        c.swi	t#1, [u#1, 0]
   11e8a: 0e 00 97 cf 00 08    hl.lui	32780,	->t
   11e90: 56 f0        c.movi	1,	->u
   11e92: 59 20 8e 01  swi	u#1, [t#1, 0]
   11e96: 0e 00 97 0f 01 08    hl.lui	32784,	->t
   11e9c: 59 30 81 01  sdi	a0, [t#1, 0]
   11ea0: 0e 00 17 8f 01 08    hl.lui	32792,	->u
   11ea6: 06 f8        c.movr	zero,	->t
   11ea8: 3a 07        c.sdi	t#1, [u#1, 0]
   11eaa: 0e 10 97 4f 00 00    hl.lui	268435460,	->t
   11eb0: 59 a0 8e 01  swi	u#2, [t#1, 0]

0000000000011eb4 <.LBB0_286>:
   11eb4: 02 00        C.BSTART	DIRECT, 0x11eb4

0000000000011eb6 <.LBB0_287>:
   11eb6: 00 08        C.BSTART.STD
   11eb8: b5 01 00 05  addiw	zero, 80,	->a1
   11ebc: 56 10        c.movi	1,	->a0

0000000000011ebe <.LBB0_288>:
   11ebe: 04 00        C.BSTART	COND, 0x11ebe
   11ec0: 35 af f1 0f  andiw	a1, 255,	->u
   11ec4: 97 0f 00 10  lui	65536,	->t
   11ec8: 59 20 8e 01  swi	u#1, [t#1, 0]
   11ecc: 87 4f 00 00  addtpc	4,	->t
   11ed0: 95 0f ec 64  addi	t#1, 1614,	->t
   11ed4: 89 01 81 07  lb	[a0, t#1],	->a1
   11ed8: 15 01 11 00  addi	a0, 1,	->a0
   11edc: b6 80        c.setc.ne	a0, s5
   11ede: 00 08        C.BSTART.STD
   11ee0: b5 01 00 02  addiw	zero, 32,	->a1
   11ee4: 56 10        c.movi	1,	->a0

0000000000011ee6 <.LBB0_290>:
   11ee6: 04 00        C.BSTART	COND, 0x11ee6
   11ee8: 35 af f1 0f  andiw	a1, 255,	->u
   11eec: 97 0f 00 10  lui	65536,	->t
   11ef0: 59 20 8e 01  swi	u#1, [t#1, 0]
   11ef4: 87 4f 00 00  addtpc	4,	->t
   11ef8: 95 0f 0c 7d  addi	t#1, 2000,	->t
   11efc: 89 01 81 07  lb	[a0, t#1],	->a1
   11f00: 15 01 11 00  addi	a0, 1,	->a0
   11f04: b6 88        c.setc.ne	a0, s6
   11f06: 00 08        C.BSTART.STD
   11f08: 35 01 c0 01  addiw	zero, 28,	->a0

0000000000011f0c <.LBB0_292>:
   11f0c: 04 00        C.BSTART	COND, 0x11f0c
   11f0e: 85 7f c1 00  sll	a0, s1,	->t
   11f12: 05 5f cc 00  srl	t#1, s1,	->u
   11f16: 0e 00 97 0f 07 0f    hl.lui	61552,	->t
   11f1c: a5 5f cc 01  srlw	t#1, u#1,	->t
   11f20: 15 2f fc 00  andi	t#1, 15,	->u
   11f24: 87 4f 00 00  addtpc	4,	->t
   11f28: 95 0f ac 5f  addi	t#1, 1530,	->t
   11f2c: 09 4f 8e 07  lbu	[u#1, t#1],	->u
   11f30: 97 0f 00 10  lui	65536,	->t
   11f34: 59 20 8e 01  swi	u#1, [t#1, 0]
   11f38: 25 01 e1 06  addw	a0, s3,	->a0
   11f3c: 9c 50        c.sext.w	a0,	->t
   11f3e: 36 7e        c.setc.ne	t#1, s4
   11f40: 00 08        C.BSTART.STD
   11f42: 06 10        c.movr	zero,	->a0
   11f44: b5 01 a0 03  addiw	zero, 58,	->a1

0000000000011f48 <.LBB0_294>:
   11f48: 04 00        C.BSTART	COND, 0x11f48
   11f4a: 35 af f1 0f  andiw	a1, 255,	->u
   11f4e: 97 0f 00 10  lui	65536,	->t
   11f52: 59 20 8e 01  swi	u#1, [t#1, 0]
   11f56: 87 4f 00 00  addtpc	4,	->t
   11f5a: 95 0f bc 7d  addi	t#1, 2011,	->t
   11f5e: 89 01 81 07  lb	[a0, t#1],	->a1
   11f62: 15 01 11 00  addi	a0, 1,	->a0
   11f66: b6 68        c.setc.ne	a0, s2
   11f68: a4 04        C.BSTART	COND, 0x11ffc
   11f6a: fe 3f 97 0f 00 80    hl.lui	1073217536,	->t
   11f70: 05 71 cc 00  sll	t#1, s1,	->a0
   11f74: 0e 40 97 0f 00 40    hl.lui	1074003968,	->t
   11f7a: 85 7f cc 00  sll	t#1, s1,	->t
   11f7e: 0e 00 97 0f 00 00    hl.lui	0,	->t
   11f84: 85 7f cc 00  sll	t#1, s1,	->t
   11f88: 05 5f cc 00  srl	t#1, s1,	->u
   11f8c: b8 e6        c.or	t#3, u#1,	->t
   11f8e: b8 e0        c.or	a0, u#1,	->t
   11f90: 7a 28        c.sdi	t#1, [sp, 40]
   11f92: 59 b0 1c 08  sdi	t#2, [sp, 32]
   11f96: 19 bf 50 00  ldi	[sp, 40],	->u
   11f9a: 5a 20        c.ldi	[sp, 32],	->t
   11f9c: db 2f 8e 01  flt.fd	u#1, t#1,	->t
   11fa0: 95 89 00 02  addi	sp, 32,	->s8
   11fa4: 95 85 80 02  addi	sp, 40,	->s0
   11fa8: f7 8f b9 c6  csel	t#1, s8, s0,	->t
   11fac: 19 31 0c 00  ldi	[t#1, 0],	->a0
   11fb0: a6 d8        c.setc.eq	a0, t#4
   11fb2: 0e 00 01 40 fd 08 96 55      HL.BSTART.STD	CALL, 0x143a6, ra=.LBB0_412
   11fba: fe 7f 97 f1 ff ff    hl.lui	2147483647,	->a1
   11fc0: 05 f2 c1 00  sll	a1, s1,	->a2
   11fc4: fe ff 97 f1 ff ff    hl.lui	4294967295,	->a1
   11fca: 85 f1 c1 00  sll	a1, s1,	->a1
   11fce: 85 d1 c1 00  srl	a1, s1,	->a1
   11fd2: 85 31 32 06  or	a2, a1,	->a1
   11fd6: 59 b0 11 04  sdi	a1, [sp, 16]
   11fda: 0e 00 b9 61 0f 1c    hl.lwu.pcr	[0x381e],	->a1
   11fe0: 59 30 11 02  sdi	a0, [sp, 8]

0000000000011fe4 <.LBB0_412>:
   11fe4: e4 5f        C.BSTART	COND, 0x12be0
   11fe6: 5a 10        c.ldi	[sp, 16],	->t
   11fe8: 05 2f 81 07  and	a0, t#1,	->u
   11fec: 0e 00 b9 3f 1e 1c    hl.ld.pcr	[0x383c],	->t
   11ff2: db 2f cc 01  flt.fd	t#1, u#1,	->t
   11ff6: 95 4f 1c 00  xori	t#1, 1,	->t
   11ffa: 26 06        c.setc.eq	t#1, zero

0000000000011ffc <.LBB0_300>:
   11ffc: 00 08        C.BSTART.STD
   11ffe: b5 01 00 05  addiw	zero, 80,	->a1
   12002: 56 10        c.movi	1,	->a0

0000000000012004 <.LBB0_301>:
   12004: 04 00        C.BSTART	COND, 0x12004
   12006: 35 af f1 0f  andiw	a1, 255,	->u
   1200a: 97 0f 00 10  lui	65536,	->t
   1200e: 59 20 8e 01  swi	u#1, [t#1, 0]
   12012: 87 3f 00 00  addtpc	3,	->t
   12016: 95 0f ec 64  addi	t#1, 1614,	->t
   1201a: 89 01 81 07  lb	[a0, t#1],	->a1
   1201e: 15 01 11 00  addi	a0, 1,	->a0
   12022: b6 80        c.setc.ne	a0, s5
   12024: 00 08        C.BSTART.STD
   12026: b5 01 00 02  addiw	zero, 32,	->a1
   1202a: 56 10        c.movi	1,	->a0

000000000001202c <.LBB0_303>:
   1202c: 04 00        C.BSTART	COND, 0x1202c
   1202e: 35 af f1 0f  andiw	a1, 255,	->u
   12032: 97 0f 00 10  lui	65536,	->t
   12036: 59 20 8e 01  swi	u#1, [t#1, 0]
   1203a: 87 3f 00 00  addtpc	3,	->t
   1203e: 95 0f 0c 7d  addi	t#1, 2000,	->t
   12042: 89 01 81 07  lb	[a0, t#1],	->a1
   12046: 15 01 11 00  addi	a0, 1,	->a0
   1204a: b6 88        c.setc.ne	a0, s6
   1204c: 00 08        C.BSTART.STD
   1204e: 35 01 c0 01  addiw	zero, 28,	->a0

0000000000012052 <.LBB0_305>:
   12052: 04 00        C.BSTART	COND, 0x12052
   12054: 85 7f c1 00  sll	a0, s1,	->t
   12058: 05 5f cc 00  srl	t#1, s1,	->u
   1205c: 0e 00 97 1f 07 0f    hl.lui	61553,	->t
   12062: a5 5f cc 01  srlw	t#1, u#1,	->t
   12066: 15 2f fc 00  andi	t#1, 15,	->u
   1206a: 87 3f 00 00  addtpc	3,	->t
   1206e: 95 0f ac 5f  addi	t#1, 1530,	->t
   12072: 09 4f 8e 07  lbu	[u#1, t#1],	->u
   12076: 97 0f 00 10  lui	65536,	->t
   1207a: 59 20 8e 01  swi	u#1, [t#1, 0]
   1207e: 25 01 e1 06  addw	a0, s3,	->a0
   12082: 9c 50        c.sext.w	a0,	->t
   12084: 36 7e        c.setc.ne	t#1, s4
   12086: 00 08        C.BSTART.STD
   12088: 06 10        c.movr	zero,	->a0
   1208a: b5 01 a0 03  addiw	zero, 58,	->a1

000000000001208e <.LBB0_307>:
   1208e: 04 00        C.BSTART	COND, 0x1208e
   12090: 35 af f1 0f  andiw	a1, 255,	->u
   12094: 97 0f 00 10  lui	65536,	->t
   12098: 59 20 8e 01  swi	u#1, [t#1, 0]
   1209c: 87 3f 00 00  addtpc	3,	->t
   120a0: 95 0f bc 7d  addi	t#1, 2011,	->t
   120a4: 89 01 81 07  lb	[a0, t#1],	->a1
   120a8: 15 01 11 00  addi	a0, 1,	->a0
   120ac: b6 68        c.setc.ne	a0, s2
   120ae: 14 04        C.BSTART	COND, 0x12130
   120b0: fe 3f 97 0f 00 80    hl.lui	1073217536,	->t
   120b6: 85 7f cc 00  sll	t#1, s1,	->t
   120ba: 0e 00 97 0f 00 00    hl.lui	0,	->t
   120c0: 85 7f cc 00  sll	t#1, s1,	->t
   120c4: 05 5f cc 00  srl	t#1, s1,	->u
   120c8: b8 e6        c.or	t#3, u#1,	->t
   120ca: 7a 28        c.sdi	t#1, [sp, 40]
   120cc: 0e 40 97 0f 00 40    hl.lui	1074003968,	->t
   120d2: 85 7f cc 00  sll	t#1, s1,	->t
   120d6: 38 e6        c.or	t#1, u#1,	->t
   120d8: 7a 20        c.sdi	t#1, [sp, 32]
   120da: 19 bf 50 00  ldi	[sp, 40],	->u
   120de: 5a 20        c.ldi	[sp, 32],	->t
   120e0: db 2f cc 01  flt.fd	t#1, u#1,	->t
   120e4: f7 8f b9 c6  csel	t#1, s8, s0,	->t
   120e8: 99 35 0c 00  ldi	[t#1, 0],	->s0
   120ec: e6 da        c.setc.eq	s0, t#4
   120ee: 0e 00 01 40 ae 08 d6 54      HL.BSTART.STD	CALL, 0x143a6, ra=.LBB0_411
   120f6: fe 7f 17 f1 ff ff    hl.lui	2147483647,	->a0
   120fc: 05 71 c1 00  sll	a0, s1,	->a0
   12100: fe ff 97 f1 ff ff    hl.lui	4294967295,	->a1
   12106: 85 f1 c1 00  sll	a1, s1,	->a1
   1210a: 85 d1 c1 00  srl	a1, s1,	->a1
   1210e: 85 39 31 06  or	a0, a1,	->s8
   12112: 0e 00 b9 61 85 1b    hl.lwu.pcr	[0x370a],	->a1
   12118: c6 12        c.movr	s0,	->a0

000000000001211a <.LBB0_411>:
   1211a: e4 58        C.BSTART	COND, 0x12c36
   1211c: 05 2f 31 07  and	a0, s8,	->u
   12120: 0e 00 b9 3f 84 1b    hl.ld.pcr	[0x3708],	->t
   12126: db 2f cc 01  flt.fd	t#1, u#1,	->t
   1212a: 95 4f 1c 00  xori	t#1, 1,	->t
   1212e: 26 06        c.setc.eq	t#1, zero

0000000000012130 <.LBB0_313>:
   12130: 00 08        C.BSTART.STD
   12132: b5 01 00 05  addiw	zero, 80,	->a1
   12136: 56 10        c.movi	1,	->a0

0000000000012138 <.LBB0_314>:
   12138: 04 00        C.BSTART	COND, 0x12138
   1213a: 35 af f1 0f  andiw	a1, 255,	->u
   1213e: 97 0f 00 10  lui	65536,	->t
   12142: 59 20 8e 01  swi	u#1, [t#1, 0]
   12146: 87 3f 00 00  addtpc	3,	->t
   1214a: 95 0f ec 64  addi	t#1, 1614,	->t
   1214e: 89 01 81 07  lb	[a0, t#1],	->a1
   12152: 15 01 11 00  addi	a0, 1,	->a0
   12156: b6 80        c.setc.ne	a0, s5
   12158: 00 08        C.BSTART.STD
   1215a: b5 01 00 02  addiw	zero, 32,	->a1
   1215e: 56 10        c.movi	1,	->a0

0000000000012160 <.LBB0_316>:
   12160: 04 00        C.BSTART	COND, 0x12160
   12162: 35 af f1 0f  andiw	a1, 255,	->u
   12166: 97 0f 00 10  lui	65536,	->t
   1216a: 59 20 8e 01  swi	u#1, [t#1, 0]
   1216e: 87 3f 00 00  addtpc	3,	->t
   12172: 95 0f 0c 7d  addi	t#1, 2000,	->t
   12176: 89 01 81 07  lb	[a0, t#1],	->a1
   1217a: 15 01 11 00  addi	a0, 1,	->a0
   1217e: b6 88        c.setc.ne	a0, s6
   12180: 00 08        C.BSTART.STD
   12182: 35 01 c0 01  addiw	zero, 28,	->a0

0000000000012186 <.LBB0_318>:
   12186: 04 00        C.BSTART	COND, 0x12186
   12188: 85 7f c1 00  sll	a0, s1,	->t
   1218c: 05 5f cc 00  srl	t#1, s1,	->u
   12190: 0e 00 97 0f 08 0f    hl.lui	61568,	->t
   12196: a5 5f cc 01  srlw	t#1, u#1,	->t
   1219a: 15 2f fc 00  andi	t#1, 15,	->u
   1219e: 87 3f 00 00  addtpc	3,	->t
   121a2: 95 0f ac 5f  addi	t#1, 1530,	->t
   121a6: 09 4f 8e 07  lbu	[u#1, t#1],	->u
   121aa: 97 0f 00 10  lui	65536,	->t
   121ae: 59 20 8e 01  swi	u#1, [t#1, 0]
   121b2: 25 01 e1 06  addw	a0, s3,	->a0
   121b6: 9c 50        c.sext.w	a0,	->t
   121b8: 36 7e        c.setc.ne	t#1, s4
   121ba: 00 08        C.BSTART.STD
   121bc: 06 10        c.movr	zero,	->a0
   121be: b5 01 a0 03  addiw	zero, 58,	->a1

00000000000121c2 <.LBB0_320>:
   121c2: 04 00        C.BSTART	COND, 0x121c2
   121c4: 35 af f1 0f  andiw	a1, 255,	->u
   121c8: 97 0f 00 10  lui	65536,	->t
   121cc: 59 20 8e 01  swi	u#1, [t#1, 0]
   121d0: 87 3f 00 00  addtpc	3,	->t
   121d4: 95 0f bc 7d  addi	t#1, 2011,	->t
   121d8: 89 01 81 07  lb	[a0, t#1],	->a1
   121dc: 15 01 11 00  addi	a0, 1,	->a0
   121e0: b6 68        c.setc.ne	a0, s2
   121e2: 0e 00 01 40 8d 09 07 f5 02 00HL.BSTART.STD	CALL, 0x14816, ra=.LBB0_409
   121ec: 0e 40 17 01 00 00    hl.lui	1073741824,	->a0
   121f2: 05 71 c1 00  sll	a0, s1,	->a0
   121f6: 0e 00 97 01 00 00    hl.lui	0,	->a1
   121fc: 85 f1 c1 00  sll	a1, s1,	->a1
   12200: 85 d1 c1 00  srl	a1, s1,	->a1
   12204: 05 31 31 06  or	a0, a1,	->a0
   12208: 59 30 11 0a  sdi	a0, [sp, 40]
   1220c: 0e 40 17 01 00 80    hl.lui	1074266112,	->a0
   12212: 05 71 c1 00  sll	a0, s1,	->a0
   12216: 05 31 31 06  or	a0, a1,	->a0
   1221a: 59 30 11 08  sdi	a0, [sp, 32]
   1221e: 1e 40 17 01 00 c0    hl.lui	1075576832,	->a0
   12224: 05 71 c1 00  sll	a0, s1,	->a0
   12228: fe 3f 17 02 00 00    hl.lui	1072693248,	->a2
   1222e: 05 72 c2 00  sll	a2, s1,	->a2
   12232: 05 32 32 06  or	a2, a1,	->a2
   12236: 59 30 12 06  sdi	a2, [sp, 24]
   1223a: 85 39 31 06  or	a0, a1,	->s8
   1223e: 19 b1 50 00  ldi	[sp, 40],	->a0
   12242: 99 b1 40 00  ldi	[sp, 32],	->a1

0000000000012246 <.LBB0_409>:
   12246: 0e 00 01 40 58 08 d6 50      HL.BSTART.STD	CALL, 0x143a6, ra=.LBB0_410
   1224e: 99 b1 30 00  ldi	[sp, 24],	->a1

0000000000012252 <.LBB0_410>:
   12252: 44 02        C.BSTART	COND, 0x1229a
   12254: 86 58        c.movr	a0,	->s0
   12256: e6 9a        c.setc.eq	s0, s8
   12258: 0e 00 01 c0 53 08 d6 54      HL.BSTART.STD	CALL, 0x143a6, ra=.LBB0_408
   12260: fe 7f 17 f1 ff ff    hl.lui	2147483647,	->a0
   12266: 05 71 c1 00  sll	a0, s1,	->a0
   1226a: fe ff 97 f1 ff ff    hl.lui	4294967295,	->a1
   12270: 85 f1 c1 00  sll	a1, s1,	->a1
   12274: 85 d1 c1 00  srl	a1, s1,	->a1
   12278: 85 39 31 06  or	a0, a1,	->s8
   1227c: 0e 00 b9 61 ce 1a    hl.lwu.pcr	[0x359c],	->a1
   12282: c6 12        c.movr	s0,	->a0

0000000000012284 <.LBB0_408>:
   12284: 34 50        C.BSTART	COND, 0x12c8a
   12286: 05 2f 31 07  and	a0, s8,	->u
   1228a: 0e 00 b9 3f cf 1a    hl.ld.pcr	[0x359e],	->t
   12290: db 2f cc 01  flt.fd	t#1, u#1,	->t
   12294: 95 4f 1c 00  xori	t#1, 1,	->t
   12298: 26 06        c.setc.eq	t#1, zero

000000000001229a <.LBB0_326>:
   1229a: 00 08        C.BSTART.STD
   1229c: b5 02 00 05  addiw	zero, 80,	->a3
   122a0: 56 20        c.movi	1,	->a2

00000000000122a2 <.LBB0_327>:
   122a2: 04 00        C.BSTART	COND, 0x122a2
   122a4: 35 af f2 0f  andiw	a3, 255,	->u
   122a8: 97 0f 00 10  lui	65536,	->t
   122ac: 59 20 8e 01  swi	u#1, [t#1, 0]
   122b0: 87 3f 00 00  addtpc	3,	->t
   122b4: 95 0f ec 64  addi	t#1, 1614,	->t
   122b8: 89 02 82 07  lb	[a2, t#1],	->a3
   122bc: 15 02 12 00  addi	a2, 1,	->a2
   122c0: 36 81        c.setc.ne	a2, s5
   122c2: 00 08        C.BSTART.STD
   122c4: b5 02 00 02  addiw	zero, 32,	->a3
   122c8: 56 20        c.movi	1,	->a2

00000000000122ca <.LBB0_329>:
   122ca: 04 00        C.BSTART	COND, 0x122ca
   122cc: 35 af f2 0f  andiw	a3, 255,	->u
   122d0: 97 0f 00 10  lui	65536,	->t
   122d4: 59 20 8e 01  swi	u#1, [t#1, 0]
   122d8: 87 3f 00 00  addtpc	3,	->t
   122dc: 95 0f 0c 7d  addi	t#1, 2000,	->t
   122e0: 89 02 82 07  lb	[a2, t#1],	->a3
   122e4: 15 02 12 00  addi	a2, 1,	->a2
   122e8: 36 89        c.setc.ne	a2, s6
   122ea: 00 08        C.BSTART.STD
   122ec: 35 02 c0 01  addiw	zero, 28,	->a2

00000000000122f0 <.LBB0_331>:
   122f0: 04 00        C.BSTART	COND, 0x122f0
   122f2: 85 7f c2 00  sll	a2, s1,	->t
   122f6: 05 5f cc 00  srl	t#1, s1,	->u
   122fa: 0e 00 97 0f 09 0f    hl.lui	61584,	->t
   12300: a5 5f cc 01  srlw	t#1, u#1,	->t
   12304: 15 2f fc 00  andi	t#1, 15,	->u
   12308: 87 3f 00 00  addtpc	3,	->t
   1230c: 95 0f ac 5f  addi	t#1, 1530,	->t
   12310: 09 4f 8e 07  lbu	[u#1, t#1],	->u
   12314: 97 0f 00 10  lui	65536,	->t
   12318: 59 20 8e 01  swi	u#1, [t#1, 0]
   1231c: 25 02 e2 06  addw	a2, s3,	->a2
   12320: 1c 51        c.sext.w	a2,	->t
   12322: 36 7e        c.setc.ne	t#1, s4
   12324: 00 08        C.BSTART.STD
   12326: 06 20        c.movr	zero,	->a2
   12328: b5 02 a0 03  addiw	zero, 58,	->a3

000000000001232c <.LBB0_333>:
   1232c: 04 00        C.BSTART	COND, 0x1232c
   1232e: 35 af f2 0f  andiw	a3, 255,	->u
   12332: 97 0f 00 10  lui	65536,	->t
   12336: 59 20 8e 01  swi	u#1, [t#1, 0]
   1233a: 87 3f 00 00  addtpc	3,	->t
   1233e: 95 0f bc 7d  addi	t#1, 2011,	->t
   12342: 89 02 82 07  lb	[a2, t#1],	->a3
   12346: 15 02 12 00  addi	a2, 1,	->a2
   1234a: 36 69        c.setc.ne	a2, s2
   1234c: 01 c0 df 02 56 50    BSTART.STD	CALL, 0x12eca, ra=.LBB0_407

0000000000012352 <.LBB0_407>:
   12352: 00 08        C.BSTART.STD
   12354: b5 02 00 05  addiw	zero, 80,	->a3
   12358: 56 20        c.movi	1,	->a2

000000000001235a <.LBB0_335>:
   1235a: 04 00        C.BSTART	COND, 0x1235a
   1235c: 35 af f2 0f  andiw	a3, 255,	->u
   12360: 97 0f 00 10  lui	65536,	->t
   12364: 59 20 8e 01  swi	u#1, [t#1, 0]
   12368: 87 3f 00 00  addtpc	3,	->t
   1236c: 95 0f ec 64  addi	t#1, 1614,	->t
   12370: 89 02 82 07  lb	[a2, t#1],	->a3
   12374: 15 02 12 00  addi	a2, 1,	->a2
   12378: 36 81        c.setc.ne	a2, s5
   1237a: 00 08        C.BSTART.STD
   1237c: b5 02 00 02  addiw	zero, 32,	->a3
   12380: 56 20        c.movi	1,	->a2

0000000000012382 <.LBB0_337>:
   12382: 04 00        C.BSTART	COND, 0x12382
   12384: 35 af f2 0f  andiw	a3, 255,	->u
   12388: 97 0f 00 10  lui	65536,	->t
   1238c: 59 20 8e 01  swi	u#1, [t#1, 0]
   12390: 87 3f 00 00  addtpc	3,	->t
   12394: 95 0f 0c 7d  addi	t#1, 2000,	->t
   12398: 89 02 82 07  lb	[a2, t#1],	->a3
   1239c: 15 02 12 00  addi	a2, 1,	->a2
   123a0: 36 89        c.setc.ne	a2, s6
   123a2: 00 08        C.BSTART.STD
   123a4: 35 02 c0 01  addiw	zero, 28,	->a2

00000000000123a8 <.LBB0_339>:
   123a8: 04 00        C.BSTART	COND, 0x123a8
   123aa: 85 7f c2 00  sll	a2, s1,	->t
   123ae: 05 5f cc 00  srl	t#1, s1,	->u
   123b2: 0e 00 97 0f 0a 0f    hl.lui	61600,	->t
   123b8: a5 5f cc 01  srlw	t#1, u#1,	->t
   123bc: 15 2f fc 00  andi	t#1, 15,	->u
   123c0: 87 3f 00 00  addtpc	3,	->t
   123c4: 95 0f ac 5f  addi	t#1, 1530,	->t
   123c8: 09 4f 8e 07  lbu	[u#1, t#1],	->u
   123cc: 97 0f 00 10  lui	65536,	->t
   123d0: 59 20 8e 01  swi	u#1, [t#1, 0]
   123d4: 25 02 e2 06  addw	a2, s3,	->a2
   123d8: 1c 51        c.sext.w	a2,	->t
   123da: 36 7e        c.setc.ne	t#1, s4
   123dc: 00 08        C.BSTART.STD
   123de: 06 20        c.movr	zero,	->a2
   123e0: b5 02 a0 03  addiw	zero, 58,	->a3

00000000000123e4 <.LBB0_341>:
   123e4: 04 00        C.BSTART	COND, 0x123e4
   123e6: 35 af f2 0f  andiw	a3, 255,	->u
   123ea: 97 0f 00 10  lui	65536,	->t
   123ee: 59 20 8e 01  swi	u#1, [t#1, 0]
   123f2: 87 3f 00 00  addtpc	3,	->t
   123f6: 95 0f bc 7d  addi	t#1, 2011,	->t
   123fa: 89 02 82 07  lb	[a2, t#1],	->a3
   123fe: 15 02 12 00  addi	a2, 1,	->a2
   12402: 36 69        c.setc.ne	a2, s2
   12404: 00 08        C.BSTART.STD
   12406: b5 02 00 05  addiw	zero, 80,	->a3
   1240a: 56 20        c.movi	1,	->a2

000000000001240c <.LBB0_343>:
   1240c: 04 00        C.BSTART	COND, 0x1240c
   1240e: 35 af f2 0f  andiw	a3, 255,	->u
   12412: 97 0f 00 10  lui	65536,	->t
   12416: 59 20 8e 01  swi	u#1, [t#1, 0]
   1241a: 87 3f 00 00  addtpc	3,	->t
   1241e: 95 0f ec 64  addi	t#1, 1614,	->t
   12422: 89 02 82 07  lb	[a2, t#1],	->a3
   12426: 15 02 12 00  addi	a2, 1,	->a2
   1242a: 36 81        c.setc.ne	a2, s5
   1242c: 00 08        C.BSTART.STD
   1242e: b5 02 00 02  addiw	zero, 32,	->a3
   12432: 56 20        c.movi	1,	->a2

0000000000012434 <.LBB0_345>:
   12434: 04 00        C.BSTART	COND, 0x12434
   12436: 35 af f2 0f  andiw	a3, 255,	->u
   1243a: 97 0f 00 10  lui	65536,	->t
   1243e: 59 20 8e 01  swi	u#1, [t#1, 0]
   12442: 87 3f 00 00  addtpc	3,	->t
   12446: 95 0f 0c 7d  addi	t#1, 2000,	->t
   1244a: 89 02 82 07  lb	[a2, t#1],	->a3
   1244e: 15 02 12 00  addi	a2, 1,	->a2
   12452: 36 89        c.setc.ne	a2, s6
   12454: 00 08        C.BSTART.STD
   12456: 35 02 c0 01  addiw	zero, 28,	->a2

000000000001245a <.LBB0_347>:
   1245a: 04 00        C.BSTART	COND, 0x1245a
   1245c: 85 7f c2 00  sll	a2, s1,	->t
   12460: 05 5f cc 00  srl	t#1, s1,	->u
   12464: 0e 00 97 0f 0b 0f    hl.lui	61616,	->t
   1246a: a5 5f cc 01  srlw	t#1, u#1,	->t
   1246e: 15 2f fc 00  andi	t#1, 15,	->u
   12472: 87 3f 00 00  addtpc	3,	->t
   12476: 95 0f ac 5f  addi	t#1, 1530,	->t
   1247a: 09 4f 8e 07  lbu	[u#1, t#1],	->u
   1247e: 97 0f 00 10  lui	65536,	->t
   12482: 59 20 8e 01  swi	u#1, [t#1, 0]
   12486: 25 02 e2 06  addw	a2, s3,	->a2
   1248a: 1c 51        c.sext.w	a2,	->t
   1248c: 36 7e        c.setc.ne	t#1, s4
   1248e: 00 08        C.BSTART.STD
   12490: 06 20        c.movr	zero,	->a2
   12492: b5 02 a0 03  addiw	zero, 58,	->a3

0000000000012496 <.LBB0_349>:
   12496: 04 00        C.BSTART	COND, 0x12496
   12498: 35 af f2 0f  andiw	a3, 255,	->u
   1249c: 97 0f 00 10  lui	65536,	->t
   124a0: 59 20 8e 01  swi	u#1, [t#1, 0]
   124a4: 87 3f 00 00  addtpc	3,	->t
   124a8: 95 0f bc 7d  addi	t#1, 2011,	->t
   124ac: 89 02 82 07  lb	[a2, t#1],	->a3
   124b0: 15 02 12 00  addi	a2, 1,	->a2
   124b4: 36 69        c.setc.ne	a2, s2
   124b6: 00 08        C.BSTART.STD
   124b8: b5 02 00 05  addiw	zero, 80,	->a3
   124bc: 56 20        c.movi	1,	->a2

00000000000124be <.LBB0_351>:
   124be: 04 00        C.BSTART	COND, 0x124be
   124c0: 35 af f2 0f  andiw	a3, 255,	->u
   124c4: 97 0f 00 10  lui	65536,	->t
   124c8: 59 20 8e 01  swi	u#1, [t#1, 0]
   124cc: 87 3f 00 00  addtpc	3,	->t
   124d0: 95 0f ec 64  addi	t#1, 1614,	->t
   124d4: 89 02 82 07  lb	[a2, t#1],	->a3
   124d8: 15 02 12 00  addi	a2, 1,	->a2
   124dc: 36 81        c.setc.ne	a2, s5
   124de: 00 08        C.BSTART.STD
   124e0: b5 02 00 02  addiw	zero, 32,	->a3
   124e4: 56 20        c.movi	1,	->a2

00000000000124e6 <.LBB0_353>:
   124e6: 04 00        C.BSTART	COND, 0x124e6
   124e8: 35 af f2 0f  andiw	a3, 255,	->u
   124ec: 97 0f 00 10  lui	65536,	->t
   124f0: 59 20 8e 01  swi	u#1, [t#1, 0]
   124f4: 87 3f 00 00  addtpc	3,	->t
   124f8: 95 0f 0c 7d  addi	t#1, 2000,	->t
   124fc: 89 02 82 07  lb	[a2, t#1],	->a3
   12500: 15 02 12 00  addi	a2, 1,	->a2
   12504: 36 89        c.setc.ne	a2, s6
   12506: 00 08        C.BSTART.STD
   12508: 35 02 c0 01  addiw	zero, 28,	->a2

000000000001250c <.LBB0_355>:
   1250c: 04 00        C.BSTART	COND, 0x1250c
   1250e: 85 7f c2 00  sll	a2, s1,	->t
   12512: 05 5f cc 00  srl	t#1, s1,	->u
   12516: 0e 00 97 0f 0c 0f    hl.lui	61632,	->t
   1251c: a5 5f cc 01  srlw	t#1, u#1,	->t
   12520: 15 2f fc 00  andi	t#1, 15,	->u
   12524: 87 3f 00 00  addtpc	3,	->t
   12528: 95 0f ac 5f  addi	t#1, 1530,	->t
   1252c: 09 4f 8e 07  lbu	[u#1, t#1],	->u
   12530: 97 0f 00 10  lui	65536,	->t
   12534: 59 20 8e 01  swi	u#1, [t#1, 0]
   12538: 25 02 e2 06  addw	a2, s3,	->a2
   1253c: 1c 51        c.sext.w	a2,	->t
   1253e: 36 7e        c.setc.ne	t#1, s4
   12540: 00 08        C.BSTART.STD
   12542: 06 20        c.movr	zero,	->a2
   12544: b5 02 a0 03  addiw	zero, 58,	->a3

0000000000012548 <.LBB0_357>:
   12548: 04 00        C.BSTART	COND, 0x12548
   1254a: 35 af f2 0f  andiw	a3, 255,	->u
   1254e: 97 0f 00 10  lui	65536,	->t
   12552: 59 20 8e 01  swi	u#1, [t#1, 0]
   12556: 87 3f 00 00  addtpc	3,	->t
   1255a: 95 0f bc 7d  addi	t#1, 2011,	->t
   1255e: 89 02 82 07  lb	[a2, t#1],	->a3
   12562: 15 02 12 00  addi	a2, 1,	->a2
   12566: 36 69        c.setc.ne	a2, s2
   12568: 00 08        C.BSTART.STD
   1256a: b5 02 00 05  addiw	zero, 80,	->a3
   1256e: 56 20        c.movi	1,	->a2

0000000000012570 <.LBB0_359>:
   12570: 04 00        C.BSTART	COND, 0x12570
   12572: 35 af f2 0f  andiw	a3, 255,	->u
   12576: 97 0f 00 10  lui	65536,	->t
   1257a: 59 20 8e 01  swi	u#1, [t#1, 0]
   1257e: 87 3f 00 00  addtpc	3,	->t
   12582: 95 0f ec 64  addi	t#1, 1614,	->t
   12586: 89 02 82 07  lb	[a2, t#1],	->a3
   1258a: 15 02 12 00  addi	a2, 1,	->a2
   1258e: 36 81        c.setc.ne	a2, s5
   12590: 00 08        C.BSTART.STD
   12592: b5 02 00 02  addiw	zero, 32,	->a3
   12596: 56 20        c.movi	1,	->a2

0000000000012598 <.LBB0_361>:
   12598: 04 00        C.BSTART	COND, 0x12598
   1259a: 35 af f2 0f  andiw	a3, 255,	->u
   1259e: 97 0f 00 10  lui	65536,	->t
   125a2: 59 20 8e 01  swi	u#1, [t#1, 0]
   125a6: 87 3f 00 00  addtpc	3,	->t
   125aa: 95 0f 0c 7d  addi	t#1, 2000,	->t
   125ae: 89 02 82 07  lb	[a2, t#1],	->a3
   125b2: 15 02 12 00  addi	a2, 1,	->a2
   125b6: 36 89        c.setc.ne	a2, s6
   125b8: 00 08        C.BSTART.STD
   125ba: 35 02 c0 01  addiw	zero, 28,	->a2

00000000000125be <.LBB0_363>:
   125be: 04 00        C.BSTART	COND, 0x125be
   125c0: 85 7f c2 00  sll	a2, s1,	->t
   125c4: 05 5f cc 00  srl	t#1, s1,	->u
   125c8: 0e 00 97 0f 0d 0f    hl.lui	61648,	->t
   125ce: a5 5f cc 01  srlw	t#1, u#1,	->t
   125d2: 15 2f fc 00  andi	t#1, 15,	->u
   125d6: 87 3f 00 00  addtpc	3,	->t
   125da: 95 0f ac 5f  addi	t#1, 1530,	->t
   125de: 09 4f 8e 07  lbu	[u#1, t#1],	->u
   125e2: 97 0f 00 10  lui	65536,	->t
   125e6: 59 20 8e 01  swi	u#1, [t#1, 0]
   125ea: 25 02 e2 06  addw	a2, s3,	->a2
   125ee: 1c 51        c.sext.w	a2,	->t
   125f0: 36 7e        c.setc.ne	t#1, s4
   125f2: 00 08        C.BSTART.STD
   125f4: 06 20        c.movr	zero,	->a2
   125f6: b5 02 a0 03  addiw	zero, 58,	->a3

00000000000125fa <.LBB0_365>:
   125fa: 04 00        C.BSTART	COND, 0x125fa
   125fc: 35 af f2 0f  andiw	a3, 255,	->u
   12600: 97 0f 00 10  lui	65536,	->t
   12604: 59 20 8e 01  swi	u#1, [t#1, 0]
   12608: 87 3f 00 00  addtpc	3,	->t
   1260c: 95 0f bc 7d  addi	t#1, 2011,	->t
   12610: 89 02 82 07  lb	[a2, t#1],	->a3
   12614: 15 02 12 00  addi	a2, 1,	->a2
   12618: 36 69        c.setc.ne	a2, s2
   1261a: 00 08        C.BSTART.STD
   1261c: b5 02 00 05  addiw	zero, 80,	->a3
   12620: 56 20        c.movi	1,	->a2

0000000000012622 <.LBB0_367>:
   12622: 04 00        C.BSTART	COND, 0x12622
   12624: 35 af f2 0f  andiw	a3, 255,	->u
   12628: 97 0f 00 10  lui	65536,	->t
   1262c: 59 20 8e 01  swi	u#1, [t#1, 0]
   12630: 87 3f 00 00  addtpc	3,	->t
   12634: 95 0f ec 64  addi	t#1, 1614,	->t
   12638: 89 02 82 07  lb	[a2, t#1],	->a3
   1263c: 15 02 12 00  addi	a2, 1,	->a2
   12640: 36 81        c.setc.ne	a2, s5
   12642: 00 08        C.BSTART.STD
   12644: b5 02 00 02  addiw	zero, 32,	->a3
   12648: 56 20        c.movi	1,	->a2

000000000001264a <.LBB0_369>:
   1264a: 04 00        C.BSTART	COND, 0x1264a
   1264c: 35 af f2 0f  andiw	a3, 255,	->u
   12650: 97 0f 00 10  lui	65536,	->t
   12654: 59 20 8e 01  swi	u#1, [t#1, 0]
   12658: 87 3f 00 00  addtpc	3,	->t
   1265c: 95 0f 0c 7d  addi	t#1, 2000,	->t
   12660: 89 02 82 07  lb	[a2, t#1],	->a3
   12664: 15 02 12 00  addi	a2, 1,	->a2
   12668: 36 89        c.setc.ne	a2, s6
   1266a: 00 08        C.BSTART.STD
   1266c: 35 02 c0 01  addiw	zero, 28,	->a2

0000000000012670 <.LBB0_371>:
   12670: 04 00        C.BSTART	COND, 0x12670
   12672: 85 7f c2 00  sll	a2, s1,	->t
   12676: 05 5f cc 00  srl	t#1, s1,	->u
   1267a: 0e 00 97 0f 0e 0f    hl.lui	61664,	->t
   12680: a5 5f cc 01  srlw	t#1, u#1,	->t
   12684: 15 2f fc 00  andi	t#1, 15,	->u
   12688: 87 3f 00 00  addtpc	3,	->t
   1268c: 95 0f ac 5f  addi	t#1, 1530,	->t
   12690: 09 4f 8e 07  lbu	[u#1, t#1],	->u
   12694: 97 0f 00 10  lui	65536,	->t
   12698: 59 20 8e 01  swi	u#1, [t#1, 0]
   1269c: 25 02 e2 06  addw	a2, s3,	->a2
   126a0: 1c 51        c.sext.w	a2,	->t
   126a2: 36 7e        c.setc.ne	t#1, s4
   126a4: 00 08        C.BSTART.STD
   126a6: 06 20        c.movr	zero,	->a2
   126a8: b5 02 a0 03  addiw	zero, 58,	->a3

00000000000126ac <.LBB0_373>:
   126ac: 04 00        C.BSTART	COND, 0x126ac
   126ae: 35 af f2 0f  andiw	a3, 255,	->u
   126b2: 97 0f 00 10  lui	65536,	->t
   126b6: 59 20 8e 01  swi	u#1, [t#1, 0]
   126ba: 87 3f 00 00  addtpc	3,	->t
   126be: 95 0f bc 7d  addi	t#1, 2011,	->t
   126c2: 89 02 82 07  lb	[a2, t#1],	->a3
   126c6: 15 02 12 00  addi	a2, 1,	->a2
   126ca: 36 69        c.setc.ne	a2, s2
   126cc: 00 08        C.BSTART.STD
   126ce: b5 02 00 05  addiw	zero, 80,	->a3
   126d2: 56 20        c.movi	1,	->a2

00000000000126d4 <.LBB0_375>:
   126d4: 04 00        C.BSTART	COND, 0x126d4
   126d6: 35 af f2 0f  andiw	a3, 255,	->u
   126da: 97 0f 00 10  lui	65536,	->t
   126de: 59 20 8e 01  swi	u#1, [t#1, 0]
   126e2: 87 3f 00 00  addtpc	3,	->t
   126e6: 95 0f ec 64  addi	t#1, 1614,	->t
   126ea: 89 02 82 07  lb	[a2, t#1],	->a3
   126ee: 15 02 12 00  addi	a2, 1,	->a2
   126f2: 36 81        c.setc.ne	a2, s5
   126f4: 00 08        C.BSTART.STD
   126f6: b5 02 00 02  addiw	zero, 32,	->a3
   126fa: 56 20        c.movi	1,	->a2

00000000000126fc <.LBB0_377>:
   126fc: 04 00        C.BSTART	COND, 0x126fc
   126fe: 35 af f2 0f  andiw	a3, 255,	->u
   12702: 97 0f 00 10  lui	65536,	->t
   12706: 59 20 8e 01  swi	u#1, [t#1, 0]
   1270a: 87 3f 00 00  addtpc	3,	->t
   1270e: 95 0f 0c 7d  addi	t#1, 2000,	->t
   12712: 89 02 82 07  lb	[a2, t#1],	->a3
   12716: 15 02 12 00  addi	a2, 1,	->a2
   1271a: 36 89        c.setc.ne	a2, s6
   1271c: 00 08        C.BSTART.STD
   1271e: 35 02 c0 01  addiw	zero, 28,	->a2

0000000000012722 <.LBB0_379>:
   12722: 04 00        C.BSTART	COND, 0x12722
   12724: 85 7f c2 00  sll	a2, s1,	->t
   12728: 05 5f cc 00  srl	t#1, s1,	->u
   1272c: 0e 00 97 1f 0e 0f    hl.lui	61665,	->t
   12732: a5 5f cc 01  srlw	t#1, u#1,	->t
   12736: 15 2f fc 00  andi	t#1, 15,	->u
   1273a: 87 3f 00 00  addtpc	3,	->t
   1273e: 95 0f ac 5f  addi	t#1, 1530,	->t
   12742: 09 4f 8e 07  lbu	[u#1, t#1],	->u
   12746: 97 0f 00 10  lui	65536,	->t
   1274a: 59 20 8e 01  swi	u#1, [t#1, 0]
   1274e: 25 02 e2 06  addw	a2, s3,	->a2
   12752: 1c 51        c.sext.w	a2,	->t
   12754: 36 7e        c.setc.ne	t#1, s4
   12756: 00 08        C.BSTART.STD
   12758: 06 20        c.movr	zero,	->a2
   1275a: b5 02 a0 03  addiw	zero, 58,	->a3

000000000001275e <.LBB0_381>:
   1275e: 04 00        C.BSTART	COND, 0x1275e
   12760: 35 af f2 0f  andiw	a3, 255,	->u
   12764: 97 0f 00 10  lui	65536,	->t
   12768: 59 20 8e 01  swi	u#1, [t#1, 0]
   1276c: 87 3f 00 00  addtpc	3,	->t
   12770: 95 0f bc 7d  addi	t#1, 2011,	->t
   12774: 89 02 82 07  lb	[a2, t#1],	->a3
   12778: 15 02 12 00  addi	a2, 1,	->a2
   1277c: 36 69        c.setc.ne	a2, s2
   1277e: 00 08        C.BSTART.STD
   12780: b5 02 00 05  addiw	zero, 80,	->a3
   12784: 56 20        c.movi	1,	->a2

0000000000012786 <.LBB0_383>:
   12786: 04 00        C.BSTART	COND, 0x12786
   12788: 35 af f2 0f  andiw	a3, 255,	->u
   1278c: 97 0f 00 10  lui	65536,	->t
   12790: 59 20 8e 01  swi	u#1, [t#1, 0]
   12794: 87 3f 00 00  addtpc	3,	->t
   12798: 95 0f ec 64  addi	t#1, 1614,	->t
   1279c: 89 02 82 07  lb	[a2, t#1],	->a3
   127a0: 15 02 12 00  addi	a2, 1,	->a2
   127a4: 36 81        c.setc.ne	a2, s5
   127a6: 00 08        C.BSTART.STD
   127a8: b5 02 00 02  addiw	zero, 32,	->a3
   127ac: 56 20        c.movi	1,	->a2

00000000000127ae <.LBB0_385>:
   127ae: 04 00        C.BSTART	COND, 0x127ae
   127b0: 35 af f2 0f  andiw	a3, 255,	->u
   127b4: 97 0f 00 10  lui	65536,	->t
   127b8: 59 20 8e 01  swi	u#1, [t#1, 0]
   127bc: 87 3f 00 00  addtpc	3,	->t
   127c0: 95 0f 0c 7d  addi	t#1, 2000,	->t
   127c4: 89 02 82 07  lb	[a2, t#1],	->a3
   127c8: 15 02 12 00  addi	a2, 1,	->a2
   127cc: 36 89        c.setc.ne	a2, s6
   127ce: 00 08        C.BSTART.STD
   127d0: 35 02 c0 01  addiw	zero, 28,	->a2

00000000000127d4 <.LBB0_387>:
   127d4: 04 00        C.BSTART	COND, 0x127d4
   127d6: 85 7f c2 00  sll	a2, s1,	->t
   127da: 05 5f cc 00  srl	t#1, s1,	->u
   127de: 0e 00 97 0f 0f 0f    hl.lui	61680,	->t
   127e4: a5 5f cc 01  srlw	t#1, u#1,	->t
   127e8: 15 2f fc 00  andi	t#1, 15,	->u
   127ec: 87 3f 00 00  addtpc	3,	->t
   127f0: 95 0f ac 5f  addi	t#1, 1530,	->t
   127f4: 09 4f 8e 07  lbu	[u#1, t#1],	->u
   127f8: 97 0f 00 10  lui	65536,	->t
   127fc: 59 20 8e 01  swi	u#1, [t#1, 0]
   12800: 25 02 e2 06  addw	a2, s3,	->a2
   12804: 1c 51        c.sext.w	a2,	->t
   12806: 36 7e        c.setc.ne	t#1, s4
   12808: 00 08        C.BSTART.STD
   1280a: 06 20        c.movr	zero,	->a2
   1280c: b5 02 a0 03  addiw	zero, 58,	->a3

0000000000012810 <.LBB0_389>:
   12810: 04 00        C.BSTART	COND, 0x12810
   12812: 35 af f2 0f  andiw	a3, 255,	->u
   12816: 97 0f 00 10  lui	65536,	->t
   1281a: 59 20 8e 01  swi	u#1, [t#1, 0]
   1281e: 87 3f 00 00  addtpc	3,	->t
   12822: 95 0f bc 7d  addi	t#1, 2011,	->t
   12826: 89 02 82 07  lb	[a2, t#1],	->a3
   1282a: 15 02 12 00  addi	a2, 1,	->a2
   1282e: 36 69        c.setc.ne	a2, s2
   12830: 00 08        C.BSTART.STD
   12832: b5 02 00 05  addiw	zero, 80,	->a3
   12836: 56 20        c.movi	1,	->a2

0000000000012838 <.LBB0_391>:
   12838: 04 00        C.BSTART	COND, 0x12838
   1283a: 35 af f2 0f  andiw	a3, 255,	->u
   1283e: 97 0f 00 10  lui	65536,	->t
   12842: 59 20 8e 01  swi	u#1, [t#1, 0]
   12846: 87 3f 00 00  addtpc	3,	->t
   1284a: 95 0f ec 64  addi	t#1, 1614,	->t
   1284e: 89 02 82 07  lb	[a2, t#1],	->a3
   12852: 15 02 12 00  addi	a2, 1,	->a2
   12856: 36 81        c.setc.ne	a2, s5
   12858: 00 08        C.BSTART.STD
   1285a: 56 2b        c.movi	13,	->a3
   1285c: 56 20        c.movi	1,	->a2

000000000001285e <.LBB0_393>:
   1285e: 04 00        C.BSTART	COND, 0x1285e
   12860: 35 af f2 0f  andiw	a3, 255,	->u
   12864: 97 0f 00 10  lui	65536,	->t
   12868: 59 20 8e 01  swi	u#1, [t#1, 0]
   1286c: 87 3f 00 00  addtpc	3,	->t
   12870: 95 0f 0c 72  addi	t#1, 1824,	->t
   12874: 89 02 82 07  lb	[a2, t#1],	->a3
   12878: 15 02 12 00  addi	a2, 1,	->a2
   1287c: 36 91        c.setc.ne	a2, s7
   1287e: 00 08        C.BSTART.STD
   12880: 06 20        c.movr	zero,	->a2
   12882: b5 02 00 03  addiw	zero, 48,	->a3

0000000000012886 <.LBB0_395>:
   12886: 04 00        C.BSTART	COND, 0x12886
   12888: 35 af f2 0f  andiw	a3, 255,	->u
   1288c: 97 0f 00 10  lui	65536,	->t
   12890: 59 20 8e 01  swi	u#1, [t#1, 0]
   12894: 87 3f 00 00  addtpc	3,	->t
   12898: 95 0f cc 68  addi	t#1, 1676,	->t
   1289c: 89 02 82 07  lb	[a2, t#1],	->a3
   128a0: 15 02 12 00  addi	a2, 1,	->a2
   128a4: 36 69        c.setc.ne	a2, s2
   128a6: 00 08        C.BSTART.STD
   128a8: b5 02 c0 01  addiw	zero, 28,	->a3
   128ac: 35 02 80 01  addiw	zero, 24,	->a2

00000000000128b0 <.LBB0_397>:
   128b0: 04 00        C.BSTART	COND, 0x128b0
   128b2: 85 ff c2 00  sll	a3, s1,	->t
   128b6: 85 5f cc 00  srl	t#1, s1,	->t
   128ba: a5 5f 82 01  srlw	a2, t#1,	->t
   128be: 15 2f 9c 00  andi	t#1, 9,	->u
   128c2: 87 3f 00 00  addtpc	3,	->t
   128c6: 95 0f ac 5f  addi	t#1, 1530,	->t
   128ca: 09 4f 8e 07  lbu	[u#1, t#1],	->u
   128ce: 97 0f 00 10  lui	65536,	->t
   128d2: 59 20 8e 01  swi	u#1, [t#1, 0]
   128d6: a5 82 e2 06  addw	a3, s3,	->a3
   128da: 5c 51        c.sext.w	a3,	->t
   128dc: 36 7e        c.setc.ne	t#1, s4
   128de: 00 08        C.BSTART.STD
   128e0: b5 03 f0 02  addiw	zero, 47,	->a5
   128e4: 56 28        c.movi	1,	->a3
   128e6: 16 31        c.movi	4,	->a4

00000000000128e8 <.LBB0_399>:
   128e8: 04 00        C.BSTART	COND, 0x128e8
   128ea: 35 af f3 0f  andiw	a5, 255,	->u
   128ee: 97 0f 00 10  lui	65536,	->t
   128f2: 59 20 8e 01  swi	u#1, [t#1, 0]
   128f6: 87 3f 00 00  addtpc	3,	->t
   128fa: 95 0f dc 7d  addi	t#1, 2013,	->t
   128fe: 89 83 82 07  lb	[a3, t#1],	->a5
   12902: 95 82 12 00  addi	a3, 1,	->a3
   12906: 76 31        c.setc.ne	a3, a4
   12908: 00 08        C.BSTART.STD
   1290a: b5 02 c0 01  addiw	zero, 28,	->a3

000000000001290e <.LBB0_401>:
   1290e: 04 00        C.BSTART	COND, 0x1290e
   12910: 85 ff c2 00  sll	a3, s1,	->t
   12914: 85 5f cc 00  srl	t#1, s1,	->t
   12918: a5 5f 82 01  srlw	a2, t#1,	->t
   1291c: 15 2f 9c 00  andi	t#1, 9,	->u
   12920: 87 3f 00 00  addtpc	3,	->t
   12924: 95 0f ac 5f  addi	t#1, 1530,	->t
   12928: 09 4f 8e 07  lbu	[u#1, t#1],	->u
   1292c: 97 0f 00 10  lui	65536,	->t
   12930: 59 20 8e 01  swi	u#1, [t#1, 0]
   12934: a5 82 e2 06  addw	a3, s3,	->a3
   12938: 5c 51        c.sext.w	a3,	->t
   1293a: 36 7e        c.setc.ne	t#1, s4
   1293c: 00 08        C.BSTART.STD
   1293e: b5 02 00 02  addiw	zero, 32,	->a3
   12942: 56 20        c.movi	1,	->a2

0000000000012944 <.LBB0_403>:
   12944: 04 00        C.BSTART	COND, 0x12944
   12946: 35 af f2 0f  andiw	a3, 255,	->u
   1294a: 97 0f 00 10  lui	65536,	->t
   1294e: 59 20 8e 01  swi	u#1, [t#1, 0]
   12952: 87 3f 00 00  addtpc	3,	->t
   12956: 95 0f 1c 7e  addi	t#1, 2017,	->t
   1295a: 89 02 82 07  lb	[a2, t#1],	->a3
   1295e: 15 02 12 00  addi	a2, 1,	->a2
   12962: 36 89        c.setc.ne	a2, s6
   12964: 00 08        C.BSTART.STD
   12966: 35 03 d0 03  addiw	zero, 61,	->a4
   1296a: 56 20        c.movi	1,	->a2
   1296c: 95 02 60 01  addi	zero, 22,	->a3

0000000000012970 <.LBB0_405>:
   12970: 04 00        C.BSTART	COND, 0x12970
   12972: 35 2f f3 0f  andiw	a4, 255,	->u
   12976: 97 0f 00 10  lui	65536,	->t
   1297a: 59 20 8e 01  swi	u#1, [t#1, 0]
   1297e: 87 3f 00 00  addtpc	3,	->t
   12982: 95 0f 2c 67  addi	t#1, 1650,	->t
   12986: 09 03 82 07  lb	[a2, t#1],	->a4
   1298a: 15 02 12 00  addi	a2, 1,	->a2
   1298e: 36 29        c.setc.ne	a2, a3
   12990: 41 30 35 21  FRET.STK	[ra ~ s8], sp!, 128

0000000000012994 <.LBB0_16>:
   12994: 00 08        C.BSTART.STD
   12996: 35 02 60 04  addiw	zero, 70,	->a2
   1299a: 56 10        c.movi	1,	->a0
   1299c: 95 01 20 02  addi	zero, 34,	->a1

00000000000129a0 <.LBB0_17>:
   129a0: 04 00        C.BSTART	COND, 0x129a0
   129a2: 35 2f f2 0f  andiw	a2, 255,	->u
   129a6: 97 0f 00 10  lui	65536,	->t
   129aa: 59 20 8e 01  swi	u#1, [t#1, 0]
   129ae: 87 3f 00 00  addtpc	3,	->t
   129b2: 95 0f 5c 69  addi	t#1, 1685,	->t
   129b6: 09 02 81 07  lb	[a0, t#1],	->a2
   129ba: 15 01 11 00  addi	a0, 1,	->a0
   129be: b6 18        c.setc.ne	a0, a1
   129c0: 01 c0 8e 01  BSTART.STD	CALL, 0x12ffa
   129c4: 1e 40 17 01 00 00    hl.lui	1074790400,	->a0
   129ca: 05 71 c1 00  sll	a0, s1,	->a0
   129ce: 0e 00 97 01 00 00    hl.lui	0,	->a1
   129d4: 85 f1 c1 00  sll	a1, s1,	->a1
   129d8: 85 d1 c1 00  srl	a1, s1,	->a1
   129dc: 85 31 31 06  or	a0, a1,	->a1
   129e0: 0e 00 17 11 00 0f    hl.lui	61441,	->a0
   129e6: c6 22        c.movr	s0,	->a2

00000000000129e8 <.LBB0_29>:
   129e8: 00 08        C.BSTART.STD
   129ea: 35 02 60 04  addiw	zero, 70,	->a2
   129ee: 56 10        c.movi	1,	->a0
   129f0: 95 01 20 02  addi	zero, 34,	->a1

00000000000129f4 <.LBB0_30>:
   129f4: 04 00        C.BSTART	COND, 0x129f4
   129f6: 35 2f f2 0f  andiw	a2, 255,	->u
   129fa: 97 0f 00 10  lui	65536,	->t
   129fe: 59 20 8e 01  swi	u#1, [t#1, 0]
   12a02: 87 3f 00 00  addtpc	3,	->t
   12a06: 95 0f 5c 69  addi	t#1, 1685,	->t
   12a0a: 09 02 81 07  lb	[a0, t#1],	->a2
   12a0e: 15 01 11 00  addi	a0, 1,	->a0
   12a12: b6 18        c.setc.ne	a0, a1
   12a14: 01 c0 79 01  BSTART.STD	CALL, 0x12ffa
   12a18: fe 3f 17 01 00 00    hl.lui	1072693248,	->a0
   12a1e: 05 71 c1 00  sll	a0, s1,	->a0
   12a22: 0e 00 97 01 00 00    hl.lui	0,	->a1
   12a28: 85 f1 c1 00  sll	a1, s1,	->a1
   12a2c: 85 d1 c1 00  srl	a1, s1,	->a1
   12a30: 85 31 31 06  or	a0, a1,	->a1
   12a34: 0e 00 17 21 00 0f    hl.lui	61442,	->a0
   12a3a: c6 22        c.movr	s0,	->a2

0000000000012a3c <.LBB0_75>:
   12a3c: 00 08        C.BSTART.STD
   12a3e: 35 02 60 04  addiw	zero, 70,	->a2
   12a42: 56 10        c.movi	1,	->a0
   12a44: 95 01 20 02  addi	zero, 34,	->a1

0000000000012a48 <.LBB0_76>:
   12a48: 04 00        C.BSTART	COND, 0x12a48
   12a4a: 35 2f f2 0f  andiw	a2, 255,	->u
   12a4e: 97 0f 00 10  lui	65536,	->t
   12a52: 59 20 8e 01  swi	u#1, [t#1, 0]
   12a56: 87 3f 00 00  addtpc	3,	->t
   12a5a: 95 0f 5c 69  addi	t#1, 1685,	->t
   12a5e: 09 02 81 07  lb	[a0, t#1],	->a2
   12a62: 15 01 11 00  addi	a0, 1,	->a0
   12a66: b6 18        c.setc.ne	a0, a1
   12a68: 01 c0 64 01  BSTART.STD	CALL, 0x12ffa
   12a6c: 0e 40 17 01 00 40    hl.lui	1074003968,	->a0
   12a72: 05 71 c1 00  sll	a0, s1,	->a0
   12a76: 0e 00 97 01 00 00    hl.lui	0,	->a1
   12a7c: 85 f1 c1 00  sll	a1, s1,	->a1
   12a80: 85 d1 c1 00  srl	a1, s1,	->a1
   12a84: 85 31 31 06  or	a0, a1,	->a1
   12a88: 0e 00 17 01 01 0f    hl.lui	61456,	->a0
   12a8e: c6 22        c.movr	s0,	->a2

0000000000012a90 <.LBB0_88>:
   12a90: 00 08        C.BSTART.STD
   12a92: 35 02 60 04  addiw	zero, 70,	->a2
   12a96: 56 10        c.movi	1,	->a0
   12a98: 95 01 20 02  addi	zero, 34,	->a1

0000000000012a9c <.LBB0_89>:
   12a9c: 04 00        C.BSTART	COND, 0x12a9c
   12a9e: 35 2f f2 0f  andiw	a2, 255,	->u
   12aa2: 97 0f 00 10  lui	65536,	->t
   12aa6: 59 20 8e 01  swi	u#1, [t#1, 0]
   12aaa: 87 3f 00 00  addtpc	3,	->t
   12aae: 95 0f 5c 69  addi	t#1, 1685,	->t
   12ab2: 09 02 81 07  lb	[a0, t#1],	->a2
   12ab6: 15 01 11 00  addi	a0, 1,	->a0
   12aba: b6 18        c.setc.ne	a0, a1
   12abc: 01 c0 4f 01  BSTART.STD	CALL, 0x12ffa
   12ac0: fe bf 17 01 00 00    hl.lui	3220176896,	->a0
   12ac6: 05 71 c1 00  sll	a0, s1,	->a0
   12aca: 0e 00 97 01 00 00    hl.lui	0,	->a1
   12ad0: 85 f1 c1 00  sll	a1, s1,	->a1
   12ad4: 85 d1 c1 00  srl	a1, s1,	->a1
   12ad8: 85 31 31 06  or	a0, a1,	->a1
   12adc: 0e 00 17 11 01 0f    hl.lui	61457,	->a0
   12ae2: c6 22        c.movr	s0,	->a2

0000000000012ae4 <.LBB0_101>:
   12ae4: 00 08        C.BSTART.STD
   12ae6: 35 02 60 04  addiw	zero, 70,	->a2
   12aea: 56 10        c.movi	1,	->a0
   12aec: 95 01 20 02  addi	zero, 34,	->a1

0000000000012af0 <.LBB0_102>:
   12af0: 04 00        C.BSTART	COND, 0x12af0
   12af2: 35 2f f2 0f  andiw	a2, 255,	->u
   12af6: 97 0f 00 10  lui	65536,	->t
   12afa: 59 20 8e 01  swi	u#1, [t#1, 0]
   12afe: 87 3f 00 00  addtpc	3,	->t
   12b02: 95 0f 5c 69  addi	t#1, 1685,	->t
   12b06: 09 02 81 07  lb	[a0, t#1],	->a2
   12b0a: 15 01 11 00  addi	a0, 1,	->a0
   12b0e: b6 18        c.setc.ne	a0, a1
   12b10: 01 c0 3a 01  BSTART.STD	CALL, 0x12ffa
   12b14: 1e 40 17 01 00 80    hl.lui	1075314688,	->a0
   12b1a: 05 71 c1 00  sll	a0, s1,	->a0
   12b1e: 0e 00 97 01 00 00    hl.lui	0,	->a1
   12b24: 85 f1 c1 00  sll	a1, s1,	->a1
   12b28: 85 d1 c1 00  srl	a1, s1,	->a1
   12b2c: 85 31 31 06  or	a0, a1,	->a1
   12b30: 0e 00 17 01 02 0f    hl.lui	61472,	->a0
   12b36: c6 22        c.movr	s0,	->a2

0000000000012b38 <.LBB0_147>:
   12b38: 00 08        C.BSTART.STD
   12b3a: 35 02 60 04  addiw	zero, 70,	->a2
   12b3e: 56 10        c.movi	1,	->a0
   12b40: 95 01 20 02  addi	zero, 34,	->a1

0000000000012b44 <.LBB0_148>:
   12b44: 04 00        C.BSTART	COND, 0x12b44
   12b46: 35 2f f2 0f  andiw	a2, 255,	->u
   12b4a: 97 0f 00 10  lui	65536,	->t
   12b4e: 59 20 8e 01  swi	u#1, [t#1, 0]
   12b52: 87 3f 00 00  addtpc	3,	->t
   12b56: 95 0f 5c 69  addi	t#1, 1685,	->t
   12b5a: 09 02 81 07  lb	[a0, t#1],	->a2
   12b5e: 15 01 11 00  addi	a0, 1,	->a0
   12b62: b6 18        c.setc.ne	a0, a1
   12b64: 01 c0 25 01  BSTART.STD	CALL, 0x12ffa
   12b68: 1e 40 17 01 00 40    hl.lui	1075052544,	->a0
   12b6e: 05 71 c1 00  sll	a0, s1,	->a0
   12b72: 0e 00 97 01 00 00    hl.lui	0,	->a1
   12b78: 85 f1 c1 00  sll	a1, s1,	->a1
   12b7c: 85 d1 c1 00  srl	a1, s1,	->a1
   12b80: 85 31 31 06  or	a0, a1,	->a1
   12b84: 0e 00 17 01 03 0f    hl.lui	61488,	->a0
   12b8a: c6 22        c.movr	s0,	->a2

0000000000012b8c <.LBB0_160>:
   12b8c: 00 08        C.BSTART.STD
   12b8e: 35 02 60 04  addiw	zero, 70,	->a2
   12b92: 56 10        c.movi	1,	->a0
   12b94: 95 01 20 02  addi	zero, 34,	->a1

0000000000012b98 <.LBB0_161>:
   12b98: 04 00        C.BSTART	COND, 0x12b98
   12b9a: 35 2f f2 0f  andiw	a2, 255,	->u
   12b9e: 97 0f 00 10  lui	65536,	->t
   12ba2: 59 20 8e 01  swi	u#1, [t#1, 0]
   12ba6: 87 3f 00 00  addtpc	3,	->t
   12baa: 95 0f 5c 69  addi	t#1, 1685,	->t
   12bae: 09 02 81 07  lb	[a0, t#1],	->a2
   12bb2: 15 01 11 00  addi	a0, 1,	->a0
   12bb6: b6 18        c.setc.ne	a0, a1
   12bb8: 01 c0 10 01  BSTART.STD	CALL, 0x12ffa
   12bbc: 1e 40 17 01 00 e0    hl.lui	1075707904,	->a0
   12bc2: 05 71 c1 00  sll	a0, s1,	->a0
   12bc6: 0e 00 97 01 00 00    hl.lui	0,	->a1
   12bcc: 85 f1 c1 00  sll	a1, s1,	->a1
   12bd0: 85 d1 c1 00  srl	a1, s1,	->a1
   12bd4: 85 31 31 06  or	a0, a1,	->a1
   12bd8: 0e 00 17 11 03 0f    hl.lui	61489,	->a0
   12bde: c6 22        c.movr	s0,	->a2

0000000000012be0 <.LBB0_297>:
   12be0: 00 08        C.BSTART.STD
   12be2: 35 02 60 04  addiw	zero, 70,	->a2
   12be6: 56 10        c.movi	1,	->a0
   12be8: 95 01 20 02  addi	zero, 34,	->a1

0000000000012bec <.LBB0_298>:
   12bec: 04 00        C.BSTART	COND, 0x12bec
   12bee: 35 2f f2 0f  andiw	a2, 255,	->u
   12bf2: 97 0f 00 10  lui	65536,	->t
   12bf6: 59 20 8e 01  swi	u#1, [t#1, 0]
   12bfa: 87 3f 00 00  addtpc	3,	->t
   12bfe: 95 0f 5c 69  addi	t#1, 1685,	->t
   12c02: 09 02 81 07  lb	[a0, t#1],	->a2
   12c06: 15 01 11 00  addi	a0, 1,	->a0
   12c0a: b6 18        c.setc.ne	a0, a1
   12c0c: 01 c0 fb 00  BSTART.STD	CALL, 0x12ffa
   12c10: fe 3f 17 01 00 80    hl.lui	1073217536,	->a0
   12c16: 05 71 c1 00  sll	a0, s1,	->a0
   12c1a: 0e 00 97 01 00 00    hl.lui	0,	->a1
   12c20: 85 f1 c1 00  sll	a1, s1,	->a1
   12c24: 85 d1 c1 00  srl	a1, s1,	->a1
   12c28: 85 31 31 06  or	a0, a1,	->a1
   12c2c: 0e 00 17 01 07 0f    hl.lui	61552,	->a0
   12c32: 19 b2 10 00  ldi	[sp, 8],	->a2

0000000000012c36 <.LBB0_310>:
   12c36: 00 08        C.BSTART.STD
   12c38: 35 02 60 04  addiw	zero, 70,	->a2
   12c3c: 56 10        c.movi	1,	->a0
   12c3e: 95 01 20 02  addi	zero, 34,	->a1

0000000000012c42 <.LBB0_311>:
   12c42: 04 00        C.BSTART	COND, 0x12c42
   12c44: 35 2f f2 0f  andiw	a2, 255,	->u
   12c48: 97 0f 00 10  lui	65536,	->t
   12c4c: 59 20 8e 01  swi	u#1, [t#1, 0]
   12c50: 87 3f 00 00  addtpc	3,	->t
   12c54: 95 0f 5c 69  addi	t#1, 1685,	->t
   12c58: 09 02 81 07  lb	[a0, t#1],	->a2
   12c5c: 15 01 11 00  addi	a0, 1,	->a0
   12c60: b6 18        c.setc.ne	a0, a1
   12c62: 01 40 e6 00  BSTART.STD	CALL, 0x12ffa
   12c66: 0e 40 17 01 00 40    hl.lui	1074003968,	->a0
   12c6c: 05 71 c1 00  sll	a0, s1,	->a0
   12c70: 0e 00 97 01 00 00    hl.lui	0,	->a1
   12c76: 85 f1 c1 00  sll	a1, s1,	->a1
   12c7a: 85 d1 c1 00  srl	a1, s1,	->a1
   12c7e: 85 31 31 06  or	a0, a1,	->a1
   12c82: 0e 00 17 11 07 0f    hl.lui	61553,	->a0
   12c88: c6 22        c.movr	s0,	->a2

0000000000012c8a <.LBB0_323>:
   12c8a: 00 08        C.BSTART.STD
   12c8c: 35 02 60 04  addiw	zero, 70,	->a2
   12c90: 56 10        c.movi	1,	->a0
   12c92: 95 01 20 02  addi	zero, 34,	->a1

0000000000012c96 <.LBB0_324>:
   12c96: 04 00        C.BSTART	COND, 0x12c96
   12c98: 35 2f f2 0f  andiw	a2, 255,	->u
   12c9c: 97 0f 00 10  lui	65536,	->t
   12ca0: 59 20 8e 01  swi	u#1, [t#1, 0]
   12ca4: 87 3f 00 00  addtpc	3,	->t
   12ca8: 95 0f 5c 69  addi	t#1, 1685,	->t
   12cac: 09 02 81 07  lb	[a0, t#1],	->a2
   12cb0: 15 01 11 00  addi	a0, 1,	->a0
   12cb4: b6 18        c.setc.ne	a0, a1
   12cb6: 01 40 d1 00  BSTART.STD	CALL, 0x12ffa
   12cba: 1e 40 17 01 00 c0    hl.lui	1075576832,	->a0
   12cc0: 05 71 c1 00  sll	a0, s1,	->a0
   12cc4: 0e 00 97 01 00 00    hl.lui	0,	->a1
   12cca: 85 f1 c1 00  sll	a1, s1,	->a1
   12cce: 85 d1 c1 00  srl	a1, s1,	->a1
   12cd2: 85 31 31 06  or	a0, a1,	->a1
   12cd6: 0e 00 17 01 08 0f    hl.lui	61568,	->a0
   12cdc: c6 22        c.movr	s0,	->a2
   12cde: 00 00        C.BSTOP

0000000000012ce0 <test_feq_true>:
   12ce0: 41 00 a5 08  FENTRY	[ra ~ ra], sp!, 32
   12ce4: a4 01        C.BSTART	COND, 0x12d18
   12ce6: 15 02 00 02  addi	zero, 32,	->a2
   12cea: fe 3f 97 0f 00 80    hl.lui	1073217536,	->t
   12cf0: 05 7f 4c 00  sll	t#1, a2,	->u
   12cf4: 0e 00 97 0f 00 00    hl.lui	0,	->t
   12cfa: 85 7f 4c 00  sll	t#1, a2,	->t
   12cfe: 85 5f 4c 00  srl	t#1, a2,	->t
   12d02: 38 c7        c.or	u#1, t#1,	->t
   12d04: 7a 10        c.sdi	t#1, [sp, 16]
   12d06: 7a 08        c.sdi	t#1, [sp, 8]
   12d08: 19 bf 20 00  ldi	[sp, 16],	->u
   12d0c: 5a 08        c.ldi	[sp, 8],	->t
   12d0e: db 0f 8e 01  feq.fd	u#1, t#1,	->t
   12d12: 26 06        c.setc.eq	t#1, zero
   12d14: 41 30 a5 08  FRET.STK	[ra ~ ra], sp!, 32

0000000000012d18 <.LBB1_1>:
   12d18: 00 08        C.BSTART.STD
   12d1a: b5 02 60 04  addiw	zero, 70,	->a3
   12d1e: 56 10        c.movi	1,	->a0
   12d20: d6 19        c.movi	7,	->a1

0000000000012d22 <.LBB1_2>:
   12d22: 04 00        C.BSTART	COND, 0x12d22
   12d24: 35 af f2 0f  andiw	a3, 255,	->u
   12d28: 97 0f 00 10  lui	65536,	->t
   12d2c: 59 20 8e 01  swi	u#1, [t#1, 0]
   12d30: 87 3f 00 00  addtpc	3,	->t
   12d34: 95 0f ec 68  addi	t#1, 1678,	->t
   12d38: 89 02 81 07  lb	[a0, t#1],	->a3
   12d3c: 15 01 11 00  addi	a0, 1,	->a0
   12d40: b6 18        c.setc.ne	a0, a1
   12d42: 00 08        C.BSTART.STD
   12d44: 06 10        c.movr	zero,	->a0
   12d46: b5 01 00 02  addiw	zero, 32,	->a1
   12d4a: 15 03 00 01  addi	zero, 16,	->a4

0000000000012d4e <.LBB1_4>:
   12d4e: 04 00        C.BSTART	COND, 0x12d4e
   12d50: 35 af f1 0f  andiw	a1, 255,	->u
   12d54: 97 0f 00 10  lui	65536,	->t
   12d58: 59 20 8e 01  swi	u#1, [t#1, 0]
   12d5c: 87 3f 00 00  addtpc	3,	->t
   12d60: 95 0f 6c 75  addi	t#1, 1878,	->t
   12d64: 89 01 81 07  lb	[a0, t#1],	->a1
   12d68: 15 01 11 00  addi	a0, 1,	->a0
   12d6c: b6 30        c.setc.ne	a0, a4
   12d6e: 00 08        C.BSTART.STD
   12d70: 35 11 00 02  subiw	zero, 32,	->a0
   12d74: b5 01 00 03  addiw	zero, 48,	->a1
   12d78: 16 29        c.movi	4,	->a3
   12d7a: 06 40        c.movr	zero,	->a6

0000000000012d7c <.LBB1_6>:
   12d7c: 04 00        C.BSTART	COND, 0x12d7c
   12d7e: 97 0f 00 10  lui	65536,	->t
   12d82: 59 a0 81 01  swi	a1, [t#1, 0]
   12d86: 25 01 51 06  addw	a0, a3,	->a0
   12d8a: 9c 50        c.sext.w	a0,	->t
   12d8c: 36 46        c.setc.ne	t#1, a6
   12d8e: 00 08        C.BSTART.STD
   12d90: b5 03 c0 01  addiw	zero, 28,	->a5
   12d94: 56 10        c.movi	1,	->a0
   12d96: 16 4f        c.movi	-4,	->a7
   12d98: 16 a7        c.movi	-4,	->x0

0000000000012d9a <.LBB1_8>:
   12d9a: 04 00        C.BSTART	COND, 0x12d9a
   12d9c: 85 ff 43 00  sll	a5, a2,	->t
   12da0: 85 5f 4c 00  srl	t#1, a2,	->t
   12da4: 05 5f 81 01  srl	a0, t#1,	->u
   12da8: 87 3f 00 00  addtpc	3,	->t
   12dac: 95 0f ac 5f  addi	t#1, 1530,	->t
   12db0: 09 4f 8e 07  lbu	[u#1, t#1],	->u
   12db4: 97 0f 00 10  lui	65536,	->t
   12db8: 59 20 8e 01  swi	u#1, [t#1, 0]
   12dbc: a5 83 93 06  addw	a5, a7,	->a5
   12dc0: dc 51        c.sext.w	a5,	->t
   12dc2: 36 a6        c.setc.ne	t#1, x0
   12dc4: 00 08        C.BSTART.STD
   12dc6: 56 4b        c.movi	13,	->a7
   12dc8: 96 38        c.movi	2,	->a5

0000000000012dca <.LBB1_10>:
   12dca: 04 00        C.BSTART	COND, 0x12dca
   12dcc: 35 af f4 0f  andiw	a7, 255,	->u
   12dd0: 97 0f 00 10  lui	65536,	->t
   12dd4: 59 20 8e 01  swi	u#1, [t#1, 0]
   12dd8: 87 3f 00 00  addtpc	3,	->t
   12ddc: 95 0f 9c 68  addi	t#1, 1673,	->t
   12de0: 89 04 84 07  lb	[a6, t#1],	->a7
   12de4: 15 04 14 00  addi	a6, 1,	->a6
   12de8: 36 3a        c.setc.ne	a6, a5
   12dea: 00 08        C.BSTART.STD
   12dec: 06 40        c.movr	zero,	->a6
   12dee: b5 04 00 02  addiw	zero, 32,	->a7

0000000000012df2 <.LBB1_12>:
   12df2: 04 00        C.BSTART	COND, 0x12df2
   12df4: 35 af f4 0f  andiw	a7, 255,	->u
   12df8: 97 0f 00 10  lui	65536,	->t
   12dfc: 59 20 8e 01  swi	u#1, [t#1, 0]
   12e00: 87 3f 00 00  addtpc	3,	->t
   12e04: 95 0f 0c 71  addi	t#1, 1808,	->t
   12e08: 89 04 84 07  lb	[a6, t#1],	->a7
   12e0c: 15 04 14 00  addi	a6, 1,	->a6
   12e10: 36 32        c.setc.ne	a6, a4
   12e12: 00 08        C.BSTART.STD
   12e14: 35 14 00 02  subiw	zero, 32,	->a6
   12e18: 06 30        c.movr	zero,	->a4

0000000000012e1a <.LBB1_14>:
   12e1a: 04 00        C.BSTART	COND, 0x12e1a
   12e1c: 97 0f 00 10  lui	65536,	->t
   12e20: 59 a0 81 01  swi	a1, [t#1, 0]
   12e24: 25 04 54 06  addw	a6, a3,	->a6
   12e28: 1c 52        c.sext.w	a6,	->t
   12e2a: 36 36        c.setc.ne	t#1, a4
   12e2c: 00 08        C.BSTART.STD
   12e2e: 35 14 00 02  subiw	zero, 32,	->a6

0000000000012e32 <.LBB1_16>:
   12e32: 04 00        C.BSTART	COND, 0x12e32
   12e34: 97 0f 00 10  lui	65536,	->t
   12e38: 59 a0 81 01  swi	a1, [t#1, 0]
   12e3c: 25 04 54 06  addw	a6, a3,	->a6
   12e40: 1c 52        c.sext.w	a6,	->t
   12e42: 36 36        c.setc.ne	t#1, a4
   12e44: 00 08        C.BSTART.STD
   12e46: 56 1b        c.movi	13,	->a1

0000000000012e48 <.LBB1_18>:
   12e48: 04 00        C.BSTART	COND, 0x12e48
   12e4a: 35 af f1 0f  andiw	a1, 255,	->u
   12e4e: 97 0f 00 10  lui	65536,	->t
   12e52: 59 20 8e 01  swi	u#1, [t#1, 0]
   12e56: 87 3f 00 00  addtpc	3,	->t
   12e5a: 95 0f 9c 68  addi	t#1, 1673,	->t
   12e5e: 89 01 83 07  lb	[a4, t#1],	->a1
   12e62: 15 03 13 00  addi	a4, 1,	->a4
   12e66: b6 39        c.setc.ne	a4, a5
   12e68: 00 08        C.BSTART.STD
   12e6a: 0e 00 97 cf 04 00    hl.lui	76,	->t
   12e70: 05 7f 4c 00  sll	t#1, a2,	->u
   12e74: 4e 58 97 3f 45 55    hl.lui	1480938579,	->t
   12e7a: 85 7f 4c 00  sll	t#1, a2,	->t
   12e7e: 85 5f 4c 00  srl	t#1, a2,	->t
   12e82: 05 3f 8e 07  or	u#1, t#1,	->u
   12e86: 97 8f 00 00  lui	8,	->t
   12e8a: 59 30 8e 01  sdi	u#1, [t#1, 0]
   12e8e: 0e 00 17 8f 00 08    hl.lui	32776,	->u
   12e94: 0e 00 97 0f 04 0f    hl.lui	61504,	->t
   12e9a: 2a 07        c.swi	t#1, [u#1, 0]
   12e9c: 0e 00 97 cf 00 08    hl.lui	32780,	->t
   12ea2: 56 f0        c.movi	1,	->u
   12ea4: 59 20 8e 01  swi	u#1, [t#1, 0]
   12ea8: 0e 00 97 0f 01 08    hl.lui	32784,	->t
   12eae: 59 30 81 01  sdi	a0, [t#1, 0]
   12eb2: 0e 00 17 8f 01 08    hl.lui	32792,	->u
   12eb8: 06 f8        c.movr	zero,	->t
   12eba: 3a 07        c.sdi	t#1, [u#1, 0]
   12ebc: 0e 10 97 4f 00 00    hl.lui	268435460,	->t
   12ec2: 59 a0 8e 01  swi	u#2, [t#1, 0]

0000000000012ec6 <.LBB1_20>:
   12ec6: 02 00        C.BSTART	DIRECT, 0x12ec6
   12ec8: 00 00        C.BSTOP

0000000000012eca <test_fsqrt_basic>:
   12eca: 41 00 15 15  FENTRY	[ra ~ s6], sp!, 80
   12ece: 00 08        C.BSTART.STD
   12ed0: 15 07 00 02  addi	zero, 32,	->s3
   12ed4: 3e 40 97 0f 00 00    hl.lui	1076887552,	->t
   12eda: 05 7f ec 00  sll	t#1, s3,	->u
   12ede: 0e 00 97 0f 00 00    hl.lui	0,	->t
   12ee4: 85 7f ec 00  sll	t#1, s3,	->t
   12ee8: 85 5f ec 00  srl	t#1, s3,	->t
   12eec: 38 c7        c.or	u#1, t#1,	->t
   12eee: 7a 08        c.sdi	t#1, [sp, 8]
   12ef0: 0e 00 39 66 88 14    hl.lwu.pcr	[0x2910],	->s1
   12ef6: b5 07 20 03  addiw	zero, 50,	->s4
   12efa: 99 b6 10 00  ldi	[sp, 8],	->s2
   12efe: d6 87        c.movi	-1,	->s5
   12f00: 06 88        c.movr	zero,	->s6

0000000000012f02 <.LBB2_1>:
   12f02: 0e 00 01 40 29 05 d6 50      HL.BSTART.STD	CALL, 0x143a6, ra=.LBB2_9
   12f0a: 46 13        c.movr	s2,	->a0
   12f0c: 06 1b        c.movr	s1,	->a1

0000000000012f0e <.LBB2_9>:
   12f0e: 0e 00 01 40 42 06 16 51      HL.BSTART.STD	CALL, 0x14816, ra=.LBB2_10
   12f16: 0e 00 b9 61 7d 14    hl.lwu.pcr	[0x28fa],	->a1

0000000000012f1c <.LBB2_10>:
   12f1c: 0e 00 01 c0 3e 06 d6 50      HL.BSTART.STD	CALL, 0x14816, ra=.LBB2_11
   12f24: 86 58        c.movr	a0,	->s0
   12f26: c6 1a        c.movr	s0,	->a1

0000000000012f28 <.LBB2_11>:
   12f28: d4 fe        C.BSTART	COND, 0x12f02
   12f2a: 5a 08        c.ldi	[sp, 8],	->t
   12f2c: db 2f 81 01  flt.fd	a0, t#1,	->t
   12f30: 77 06 b6 c6  csel	t#1, s1, s0,	->s1
   12f34: f7 86 d5 c6  csel	t#1, s0, s2,	->s2
   12f38: a5 87 07 07  addw	s4, s5,	->s4
   12f3c: dc 53        c.sext.w	s4,	->t
   12f3e: 36 8e        c.setc.ne	t#1, s6
   12f40: 04 03        C.BSTART	COND, 0x12fa0
   12f42: 1e 40 97 0f 00 00    hl.lui	1074790400,	->t
   12f48: 05 7f ec 00  sll	t#1, s3,	->u
   12f4c: 0e 00 97 0f 00 00    hl.lui	0,	->t
   12f52: 85 7f ec 00  sll	t#1, s3,	->t
   12f56: 85 5f ec 00  srl	t#1, s3,	->t
   12f5a: 38 c7        c.or	u#1, t#1,	->t
   12f5c: e6 c2        c.setc.eq	s0, t#1
   12f5e: 0e 00 01 40 12 05 d6 54      HL.BSTART.STD	CALL, 0x143a6, ra=.LBB2_8
   12f66: fe 7f 17 f1 ff ff    hl.lui	2147483647,	->a0
   12f6c: 05 71 e1 00  sll	a0, s3,	->a0
   12f70: fe ff 97 f1 ff ff    hl.lui	4294967295,	->a1
   12f76: 85 f1 e1 00  sll	a1, s3,	->a1
   12f7a: 85 d1 e1 00  srl	a1, s3,	->a1
   12f7e: 05 36 31 06  or	a0, a1,	->s1
   12f82: 0e 00 b9 61 39 14    hl.lwu.pcr	[0x2872],	->a1
   12f88: c6 12        c.movr	s0,	->a0

0000000000012f8a <.LBB2_8>:
   12f8a: d4 00        C.BSTART	COND, 0x12fa4
   12f8c: 05 2f c1 06  and	a0, s1,	->u
   12f90: 0e 00 b9 3f 48 14    hl.ld.pcr	[0x2890],	->t
   12f96: db 2f cc 01  flt.fd	t#1, u#1,	->t
   12f9a: 95 4f 1c 00  xori	t#1, 1,	->t
   12f9e: 26 06        c.setc.eq	t#1, zero

0000000000012fa0 <.LBB2_7>:
   12fa0: 41 30 15 15  FRET.STK	[ra ~ s6], sp!, 80

0000000000012fa4 <.LBB2_4>:
   12fa4: 00 08        C.BSTART.STD
   12fa6: 35 02 60 04  addiw	zero, 70,	->a2
   12faa: 56 10        c.movi	1,	->a0
   12fac: 95 01 20 02  addi	zero, 34,	->a1

0000000000012fb0 <.LBB2_5>:
   12fb0: 04 00        C.BSTART	COND, 0x12fb0
   12fb2: 35 2f f2 0f  andiw	a2, 255,	->u
   12fb6: 97 0f 00 10  lui	65536,	->t
   12fba: 59 20 8e 01  swi	u#1, [t#1, 0]
   12fbe: 87 3f 00 00  addtpc	3,	->t
   12fc2: 95 0f 5c 69  addi	t#1, 1685,	->t
   12fc6: 09 02 81 07  lb	[a0, t#1],	->a2
   12fca: 15 01 11 00  addi	a0, 1,	->a0
   12fce: b6 18        c.setc.ne	a0, a1
   12fd0: 01 c0 0a 00  BSTART.STD	CALL, 0x12ffa
   12fd4: 1e 40 17 01 00 00    hl.lui	1074790400,	->a0
   12fda: 05 71 e1 00  sll	a0, s3,	->a0
   12fde: 0e 00 97 01 00 00    hl.lui	0,	->a1
   12fe4: 85 f1 e1 00  sll	a1, s3,	->a1
   12fe8: 85 d1 e1 00  srl	a1, s3,	->a1
   12fec: 85 31 31 06  or	a0, a1,	->a1
   12ff0: 0e 00 17 01 09 0f    hl.lui	61584,	->a0
   12ff6: c6 22        c.movr	s0,	->a2
   12ff8: 00 00        C.BSTOP

0000000000012ffa <test_fail>:
   12ffa: 41 00 a5 02  FENTRY	[ra ~ ra], sp!, 8
   12ffe: 00 08        C.BSTART.STD
   13000: b5 03 60 04  addiw	zero, 70,	->a5
   13004: 56 28        c.movi	1,	->a3
   13006: d6 31        c.movi	7,	->a4

0000000000013008 <.LBB3_1>:
   13008: 04 00        C.BSTART	COND, 0x13008
   1300a: 35 af f3 0f  andiw	a5, 255,	->u
   1300e: 97 0f 00 10  lui	65536,	->t
   13012: 59 20 8e 01  swi	u#1, [t#1, 0]
   13016: 87 2f 00 00  addtpc	2,	->t
   1301a: 95 0f ec 68  addi	t#1, 1678,	->t
   1301e: 89 83 82 07  lb	[a3, t#1],	->a5
   13022: 95 82 12 00  addi	a3, 1,	->a3
   13026: 76 31        c.setc.ne	a3, a4
   13028: 00 08        C.BSTART.STD
   1302a: 06 28        c.movr	zero,	->a3
   1302c: 35 03 00 02  addiw	zero, 32,	->a4
   13030: 15 04 00 01  addi	zero, 16,	->a6

0000000000013034 <.LBB3_3>:
   13034: 04 00        C.BSTART	COND, 0x13034
   13036: 35 2f f3 0f  andiw	a4, 255,	->u
   1303a: 97 0f 00 10  lui	65536,	->t
   1303e: 59 20 8e 01  swi	u#1, [t#1, 0]
   13042: 87 2f 00 00  addtpc	2,	->t
   13046: 95 0f 6c 75  addi	t#1, 1878,	->t
   1304a: 09 83 82 07  lb	[a3, t#1],	->a4
   1304e: 95 82 12 00  addi	a3, 1,	->a3
   13052: 76 41        c.setc.ne	a3, a6
   13054: 00 08        C.BSTART.STD
   13056: 95 02 00 02  addi	zero, 32,	->a3
   1305a: 85 d4 51 00  srl	a1, a3,	->a7
   1305e: 35 0a c0 01  addiw	zero, 28,	->x0
   13062: 16 37        c.movi	-4,	->a4
   13064: 16 3f        c.movi	-4,	->a5

0000000000013066 <.LBB3_5>:
   13066: 04 00        C.BSTART	COND, 0x13066
   13068: 85 7f 5a 00  sll	x0, a3,	->t
   1306c: 85 5f 5c 00  srl	t#1, a3,	->t
   13070: a5 df 84 01  srlw	a7, t#1,	->t
   13074: 15 2f fc 00  andi	t#1, 15,	->u
   13078: 87 2f 00 00  addtpc	2,	->t
   1307c: 95 0f ac 5f  addi	t#1, 1530,	->t
   13080: 09 4f 8e 07  lbu	[u#1, t#1],	->u
   13084: 97 0f 00 10  lui	65536,	->t
   13088: 59 20 8e 01  swi	u#1, [t#1, 0]
   1308c: 25 0a 6a 06  addw	x0, a4,	->x0
   13090: 1c 55        c.sext.w	x0,	->t
   13092: 36 3e        c.setc.ne	t#1, a5
   13094: 00 08        C.BSTART.STD
   13096: b5 04 c0 01  addiw	zero, 28,	->a7

000000000001309a <.LBB3_7>:
   1309a: 04 00        C.BSTART	COND, 0x1309a
   1309c: 85 ff 54 00  sll	a7, a3,	->t
   130a0: 85 5f 5c 00  srl	t#1, a3,	->t
   130a4: a5 df 81 01  srlw	a1, t#1,	->t
   130a8: 15 2f fc 00  andi	t#1, 15,	->u
   130ac: 87 2f 00 00  addtpc	2,	->t
   130b0: 95 0f ac 5f  addi	t#1, 1530,	->t
   130b4: 09 4f 8e 07  lbu	[u#1, t#1],	->u
   130b8: 97 0f 00 10  lui	65536,	->t
   130bc: 59 20 8e 01  swi	u#1, [t#1, 0]
   130c0: a5 84 64 06  addw	a7, a4,	->a7
   130c4: 5c 52        c.sext.w	a7,	->t
   130c6: 36 3e        c.setc.ne	t#1, a5
   130c8: 00 08        C.BSTART.STD
   130ca: 06 a0        c.movr	zero,	->x0
   130cc: 56 ab        c.movi	13,	->x1
   130ce: 96 48        c.movi	2,	->a7

00000000000130d0 <.LBB3_9>:
   130d0: 04 00        C.BSTART	COND, 0x130d0
   130d2: 35 af fa 0f  andiw	x1, 255,	->u
   130d6: 97 0f 00 10  lui	65536,	->t
   130da: 59 20 8e 01  swi	u#1, [t#1, 0]
   130de: 87 2f 00 00  addtpc	2,	->t
   130e2: 95 0f 9c 68  addi	t#1, 1673,	->t
   130e6: 89 0a 8a 07  lb	[x0, t#1],	->x1
   130ea: 15 0a 1a 00  addi	x0, 1,	->x0
   130ee: 36 4d        c.setc.ne	x0, a7
   130f0: 00 08        C.BSTART.STD
   130f2: 06 a0        c.movr	zero,	->x0
   130f4: b5 0a 00 02  addiw	zero, 32,	->x1

00000000000130f8 <.LBB3_11>:
   130f8: 04 00        C.BSTART	COND, 0x130f8
   130fa: 35 af fa 0f  andiw	x1, 255,	->u
   130fe: 97 0f 00 10  lui	65536,	->t
   13102: 59 20 8e 01  swi	u#1, [t#1, 0]
   13106: 87 2f 00 00  addtpc	2,	->t
   1310a: 95 0f 0c 71  addi	t#1, 1808,	->t
   1310e: 89 0a 8a 07  lb	[x0, t#1],	->x1
   13112: 15 0a 1a 00  addi	x0, 1,	->x0
   13116: 36 45        c.setc.ne	x0, a6
   13118: 00 08        C.BSTART.STD
   1311a: 05 54 52 00  srl	a2, a3,	->a6
   1311e: 35 0a c0 01  addiw	zero, 28,	->x0

0000000000013122 <.LBB3_13>:
   13122: 04 00        C.BSTART	COND, 0x13122
   13124: 85 7f 5a 00  sll	x0, a3,	->t
   13128: 85 5f 5c 00  srl	t#1, a3,	->t
   1312c: a5 5f 84 01  srlw	a6, t#1,	->t
   13130: 15 2f fc 00  andi	t#1, 15,	->u
   13134: 87 2f 00 00  addtpc	2,	->t
   13138: 95 0f ac 5f  addi	t#1, 1530,	->t
   1313c: 09 4f 8e 07  lbu	[u#1, t#1],	->u
   13140: 97 0f 00 10  lui	65536,	->t
   13144: 59 20 8e 01  swi	u#1, [t#1, 0]
   13148: 25 0a 6a 06  addw	x0, a4,	->x0
   1314c: 1c 55        c.sext.w	x0,	->t
   1314e: 36 3e        c.setc.ne	t#1, a5
   13150: 00 08        C.BSTART.STD
   13152: 35 04 c0 01  addiw	zero, 28,	->a6

0000000000013156 <.LBB3_15>:
   13156: 04 00        C.BSTART	COND, 0x13156
   13158: 85 7f 54 00  sll	a6, a3,	->t
   1315c: 85 5f 5c 00  srl	t#1, a3,	->t
   13160: a5 5f 82 01  srlw	a2, t#1,	->t
   13164: 15 2f fc 00  andi	t#1, 15,	->u
   13168: 87 2f 00 00  addtpc	2,	->t
   1316c: 95 0f ac 5f  addi	t#1, 1530,	->t
   13170: 09 4f 8e 07  lbu	[u#1, t#1],	->u
   13174: 97 0f 00 10  lui	65536,	->t
   13178: 59 20 8e 01  swi	u#1, [t#1, 0]
   1317c: 25 04 64 06  addw	a6, a4,	->a6
   13180: 1c 52        c.sext.w	a6,	->t
   13182: 36 3e        c.setc.ne	t#1, a5
   13184: 00 08        C.BSTART.STD
   13186: 06 30        c.movr	zero,	->a4
   13188: 56 3b        c.movi	13,	->a5

000000000001318a <.LBB3_17>:
   1318a: 04 00        C.BSTART	COND, 0x1318a
   1318c: 35 af f3 0f  andiw	a5, 255,	->u
   13190: 97 0f 00 10  lui	65536,	->t
   13194: 59 20 8e 01  swi	u#1, [t#1, 0]
   13198: 87 2f 00 00  addtpc	2,	->t
   1319c: 95 0f 9c 68  addi	t#1, 1673,	->t
   131a0: 89 03 83 07  lb	[a4, t#1],	->a5
   131a4: 15 03 13 00  addi	a4, 1,	->a4
   131a8: b6 49        c.setc.ne	a4, a7
   131aa: 00 08        C.BSTART.STD
   131ac: 0e 00 97 cf 04 00    hl.lui	76,	->t
   131b2: 05 7f 5c 00  sll	t#1, a3,	->u
   131b6: 4e 58 97 3f 45 55    hl.lui	1480938579,	->t
   131bc: 85 7f 5c 00  sll	t#1, a3,	->t
   131c0: 85 5f 5c 00  srl	t#1, a3,	->t
   131c4: 05 3f 8e 07  or	u#1, t#1,	->u
   131c8: 97 8f 00 00  lui	8,	->t
   131cc: 59 30 8e 01  sdi	u#1, [t#1, 0]
   131d0: 0e 00 97 8f 00 08    hl.lui	32776,	->t
   131d6: 59 20 81 01  swi	a0, [t#1, 0]
   131da: 0e 00 97 cf 00 08    hl.lui	32780,	->t
   131e0: 56 f0        c.movi	1,	->u
   131e2: 59 20 8e 01  swi	u#1, [t#1, 0]
   131e6: 0e 00 97 0f 01 08    hl.lui	32784,	->t
   131ec: 59 b0 81 01  sdi	a1, [t#1, 0]
   131f0: 0e 00 97 8f 01 08    hl.lui	32792,	->t
   131f6: 59 30 82 01  sdi	a2, [t#1, 0]
   131fa: 0e 10 97 4f 00 00    hl.lui	268435460,	->t
   13200: 59 20 8e 01  swi	u#1, [t#1, 0]

0000000000013204 <.LBB3_19>:
   13204: 02 00        C.BSTART	DIRECT, 0x13204
   13206: 00 00        C.BSTOP

0000000000013208 <__addsf3>:
   13208: 41 00 a5 28  FENTRY	[ra ~ ra], sp!, 160
   1320c: 01 c0 4b 01 d6 51    BSTART.STD	CALL, 0x1373a, ra=.LBB0_75
   13212: 59 20 11 48  swi	a0, [sp, 144]
   13216: 59 a0 11 46  swi	a1, [sp, 140]
   1321a: 19 e1 40 02  lwui	[sp, 144],	->a0

000000000001321e <.LBB0_75>:
   1321e: 01 40 47 01 56 51    BSTART.STD	CALL, 0x1373a, ra=.LBB0_76
   13224: 59 20 11 44  swi	a0, [sp, 136]
   13228: 19 e1 30 02  lwui	[sp, 140],	->a0

000000000001322c <.LBB0_76>:
   1322c: 01 c0 49 01 56 51    BSTART.STD	CALL, 0x13752, ra=.LBB0_77
   13232: 59 20 11 42  swi	a0, [sp, 132]
   13236: 19 a1 20 02  lwi	[sp, 136],	->a0

000000000001323a <.LBB0_77>:
   1323a: 94 00        C.BSTART	COND, 0x1324c
   1323c: 9c 50        c.sext.w	a0,	->t
   1323e: 06 18        c.movr	zero,	->a1
   13240: 26 1e        c.setc.eq	t#1, a1
   13242: 72 27        C.BSTART	DIRECT, 0x13730
   13244: 99 ef 40 02  lwui	[sp, 144],	->t
   13248: 59 20 1c 4a  swi	t#1, [sp, 148]

000000000001324c <.LBB0_2>:
   1324c: 01 c0 41 01 d6 50    BSTART.STD	CALL, 0x13752, ra=.LBB0_74
   13252: 19 a1 10 02  lwi	[sp, 132],	->a0

0000000000013256 <.LBB0_74>:
   13256: 94 00        C.BSTART	COND, 0x13268
   13258: 9c 50        c.sext.w	a0,	->t
   1325a: 06 18        c.movr	zero,	->a1
   1325c: 26 1e        c.setc.eq	t#1, a1
   1325e: 92 26        C.BSTART	DIRECT, 0x13730
   13260: 99 ef 30 02  lwui	[sp, 140],	->t
   13264: 59 20 1c 4a  swi	t#1, [sp, 148]

0000000000013268 <.LBB0_4>:
   13268: f4 05        C.BSTART	COND, 0x13326
   1326a: 99 af 20 02  lwi	[sp, 136],	->t
   1326e: b5 5f fc 01  srliw	t#1, 31,	->t
   13272: 59 20 1c 40  swi	t#1, [sp, 128]
   13276: 99 af 10 02  lwi	[sp, 132],	->t
   1327a: b5 5f fc 01  srliw	t#1, 31,	->t
   1327e: 59 20 1c 3e  swi	t#1, [sp, 124]
   13282: 99 af 20 02  lwi	[sp, 136],	->t
   13286: b5 5f 7c 01  srliw	t#1, 23,	->t
   1328a: b5 2f fc 0f  andiw	t#1, 255,	->t
   1328e: 59 20 1c 3c  swi	t#1, [sp, 120]
   13292: 99 af 10 02  lwi	[sp, 132],	->t
   13296: b5 5f 7c 01  srliw	t#1, 23,	->t
   1329a: b5 2f fc 0f  andiw	t#1, 255,	->t
   1329e: 59 20 1c 3a  swi	t#1, [sp, 116]
   132a2: 99 af 20 02  lwi	[sp, 136],	->t
   132a6: 7e 00 17 ff ff ff    hl.lui	8388607,	->u
   132ac: a5 2f cc 07  andw	t#1, u#1,	->t
   132b0: 59 20 1c 38  swi	t#1, [sp, 112]
   132b4: 99 af 10 02  lwi	[sp, 132],	->t
   132b8: a5 2f cc 07  andw	t#1, u#1,	->t
   132bc: 59 20 1c 36  swi	t#1, [sp, 108]
   132c0: 99 af e0 01  lwi	[sp, 120],	->t
   132c4: 25 0f 0c 06  addw	t#1, zero,	->u
   132c8: 95 0f f0 0f  addi	zero, 255,	->t
   132cc: 36 c7        c.setc.ne	u#1, t#1
   132ce: b4 00        C.BSTART	COND, 0x132e4
   132d0: 99 af c0 01  lwi	[sp, 112],	->t
   132d4: 1c 56        c.sext.w	t#1,	->t
   132d6: 06 18        c.movr	zero,	->a1
   132d8: 26 1e        c.setc.eq	t#1, a1
   132da: b2 22        C.BSTART	DIRECT, 0x13730
   132dc: 99 ef 40 02  lwui	[sp, 144],	->t
   132e0: 59 20 1c 4a  swi	t#1, [sp, 148]

00000000000132e4 <.LBB0_7>:
   132e4: c4 01        C.BSTART	COND, 0x1331c
   132e6: 99 af d0 01  lwi	[sp, 116],	->t
   132ea: 1c 56        c.sext.w	t#1,	->t
   132ec: 95 01 f0 0f  addi	zero, 255,	->a1
   132f0: 36 1e        c.setc.ne	t#1, a1
   132f2: 54 01        C.BSTART	COND, 0x1331c
   132f4: 99 af b0 01  lwi	[sp, 108],	->t
   132f8: 1c 56        c.sext.w	t#1,	->t
   132fa: 06 18        c.movr	zero,	->a1
   132fc: 36 1e        c.setc.ne	t#1, a1
   132fe: f4 00        C.BSTART	COND, 0x1331c
   13300: 99 af f0 01  lwi	[sp, 124],	->t
   13304: a5 01 0c 06  addw	t#1, zero,	->a1
   13308: 99 af 00 02  lwi	[sp, 128],	->t
   1330c: 1c 56        c.sext.w	t#1,	->t
   1330e: 26 1e        c.setc.eq	t#1, a1
   13310: 01 40 1f 01 56 50    BSTART.STD	CALL, 0x1378c, ra=.LBB0_73

0000000000013316 <.LBB0_73>:
   13316: d2 20        C.BSTART	DIRECT, 0x13730
   13318: 59 20 11 4a  swi	a0, [sp, 148]

000000000001331c <.LBB0_11>:
   1331c: a2 20        C.BSTART	DIRECT, 0x13730
   1331e: 99 ef 40 02  lwui	[sp, 144],	->t
   13322: 59 20 1c 4a  swi	t#1, [sp, 148]

0000000000013326 <.LBB0_12>:
   13326: 54 01        C.BSTART	COND, 0x13350
   13328: 99 af d0 01  lwi	[sp, 116],	->t
   1332c: 75 10 fc 0f  setc.nei	t#1, 255
   13330: b4 00        C.BSTART	COND, 0x13346
   13332: 99 af b0 01  lwi	[sp, 108],	->t
   13336: 1c 56        c.sext.w	t#1,	->t
   13338: 06 18        c.movr	zero,	->a1
   1333a: 26 1e        c.setc.eq	t#1, a1
   1333c: a2 1f        C.BSTART	DIRECT, 0x13730
   1333e: 99 ef 30 02  lwui	[sp, 140],	->t
   13342: 59 20 1c 4a  swi	t#1, [sp, 148]

0000000000013346 <.LBB0_15>:
   13346: 52 1f        C.BSTART	DIRECT, 0x13730
   13348: 99 ef 30 02  lwui	[sp, 140],	->t
   1334c: 59 20 1c 4a  swi	t#1, [sp, 148]

0000000000013350 <.LBB0_16>:
   13350: 01 c0 13 01 d6 50    BSTART.STD	CALL, 0x1379e, ra=.LBB0_72
   13356: 19 a1 20 02  lwi	[sp, 136],	->a0

000000000001335a <.LBB0_72>:
   1335a: 94 00        C.BSTART	COND, 0x1336c
   1335c: 9c 50        c.sext.w	a0,	->t
   1335e: 06 18        c.movr	zero,	->a1
   13360: 26 1e        c.setc.eq	t#1, a1
   13362: 72 1e        C.BSTART	DIRECT, 0x13730
   13364: 99 ef 30 02  lwui	[sp, 140],	->t
   13368: 59 20 1c 4a  swi	t#1, [sp, 148]

000000000001336c <.LBB0_18>:
   1336c: 01 c0 0c 01 d6 50    BSTART.STD	CALL, 0x1379e, ra=.LBB0_71
   13372: 19 a1 10 02  lwi	[sp, 132],	->a0

0000000000013376 <.LBB0_71>:
   13376: 94 00        C.BSTART	COND, 0x13388
   13378: 9c 50        c.sext.w	a0,	->t
   1337a: 06 18        c.movr	zero,	->a1
   1337c: 26 1e        c.setc.eq	t#1, a1
   1337e: 92 1d        C.BSTART	DIRECT, 0x13730
   13380: 99 ef 40 02  lwui	[sp, 144],	->t
   13384: 59 20 1c 4a  swi	t#1, [sp, 148]

0000000000013388 <.LBB0_20>:
   13388: 94 00        C.BSTART	COND, 0x1339a
   1338a: 99 af e0 01  lwi	[sp, 120],	->t
   1338e: 75 00 0c 00  setc.eqi	t#1, 0
   13392: 72 00        C.BSTART	DIRECT, 0x133a0
   13394: 99 af e0 01  lwi	[sp, 120],	->t
   13398: 7a 10        c.sdi	t#1, [sp, 16]

000000000001339a <.LBB0_22>:
   1339a: 32 00        C.BSTART	DIRECT, 0x133a0
   1339c: 56 f8        c.movi	1,	->t
   1339e: 7a 10        c.sdi	t#1, [sp, 16]

00000000000133a0 <.LBB0_23>:
   133a0: c4 00        C.BSTART	COND, 0x133b8
   133a2: 5a 10        c.ldi	[sp, 16],	->t
   133a4: 59 20 1c 34  swi	t#1, [sp, 104]
   133a8: 99 af d0 01  lwi	[sp, 116],	->t
   133ac: 75 00 0c 00  setc.eqi	t#1, 0
   133b0: 72 00        C.BSTART	DIRECT, 0x133be
   133b2: 99 af d0 01  lwi	[sp, 116],	->t
   133b6: 7a 08        c.sdi	t#1, [sp, 8]

00000000000133b8 <.LBB0_25>:
   133b8: 32 00        C.BSTART	DIRECT, 0x133be
   133ba: 56 f8        c.movi	1,	->t
   133bc: 7a 08        c.sdi	t#1, [sp, 8]

00000000000133be <.LBB0_26>:
   133be: 14 01        C.BSTART	COND, 0x133e0
   133c0: 5a 08        c.ldi	[sp, 8],	->t
   133c2: 59 20 1c 32  swi	t#1, [sp, 100]
   133c6: 99 af e0 01  lwi	[sp, 120],	->t
   133ca: 75 00 0c 00  setc.eqi	t#1, 0
   133ce: 92 00        C.BSTART	DIRECT, 0x133e0
   133d0: 19 af c0 01  lwi	[sp, 112],	->u
   133d4: 97 0f 80 00  lui	2048,	->t
   133d8: a5 3f 8e 07  orw	u#1, t#1,	->t
   133dc: 59 20 1c 38  swi	t#1, [sp, 112]

00000000000133e0 <.LBB0_28>:
   133e0: e4 00        C.BSTART	COND, 0x133fc
   133e2: 99 af d0 01  lwi	[sp, 116],	->t
   133e6: 75 00 0c 00  setc.eqi	t#1, 0
   133ea: 92 00        C.BSTART	DIRECT, 0x133fc
   133ec: 19 af b0 01  lwi	[sp, 108],	->u
   133f0: 97 0f 80 00  lui	2048,	->t
   133f4: a5 3f 8e 07  orw	u#1, t#1,	->t
   133f8: 59 20 1c 36  swi	t#1, [sp, 108]

00000000000133fc <.LBB0_30>:
   133fc: b4 03        C.BSTART	COND, 0x13472
   133fe: 99 af 90 01  lwi	[sp, 100],	->t
   13402: 25 0f 0c 06  addw	t#1, zero,	->u
   13406: 99 af a0 01  lwi	[sp, 104],	->t
   1340a: 1c 56        c.sext.w	t#1,	->t
   1340c: 65 50 cc 07  setc.ge	t#1, u#1
   13410: 12 03        C.BSTART	DIRECT, 0x13472
   13412: 99 af a0 01  lwi	[sp, 104],	->t
   13416: 59 20 1c 30  swi	t#1, [sp, 96]
   1341a: 99 af 90 01  lwi	[sp, 100],	->t
   1341e: 59 20 1c 34  swi	t#1, [sp, 104]
   13422: 99 af 80 01  lwi	[sp, 96],	->t
   13426: 59 20 1c 32  swi	t#1, [sp, 100]
   1342a: 99 af e0 01  lwi	[sp, 120],	->t
   1342e: 59 20 1c 30  swi	t#1, [sp, 96]
   13432: 99 af d0 01  lwi	[sp, 116],	->t
   13436: 59 20 1c 3c  swi	t#1, [sp, 120]
   1343a: 99 af 80 01  lwi	[sp, 96],	->t
   1343e: 59 20 1c 3a  swi	t#1, [sp, 116]
   13442: 99 af 00 02  lwi	[sp, 128],	->t
   13446: 59 20 1c 30  swi	t#1, [sp, 96]
   1344a: 99 af f0 01  lwi	[sp, 124],	->t
   1344e: 59 20 1c 40  swi	t#1, [sp, 128]
   13452: 99 af 80 01  lwi	[sp, 96],	->t
   13456: 59 20 1c 3e  swi	t#1, [sp, 124]
   1345a: 99 af c0 01  lwi	[sp, 112],	->t
   1345e: 59 20 1c 2e  swi	t#1, [sp, 92]
   13462: 99 af b0 01  lwi	[sp, 108],	->t
   13466: 59 20 1c 38  swi	t#1, [sp, 112]
   1346a: 99 af 70 01  lwi	[sp, 92],	->t
   1346e: 59 20 1c 36  swi	t#1, [sp, 108]

0000000000013472 <.LBB0_32>:
   13472: 34 05        C.BSTART	COND, 0x13518
   13474: 99 af c0 01  lwi	[sp, 112],	->t
   13478: b5 7f 3c 00  slliw	t#1, 3,	->t
   1347c: 59 20 1c 2c  swi	t#1, [sp, 88]
   13480: 99 af b0 01  lwi	[sp, 108],	->t
   13484: b5 7f 3c 00  slliw	t#1, 3,	->t
   13488: 59 20 1c 2a  swi	t#1, [sp, 84]
   1348c: 99 af a0 01  lwi	[sp, 104],	->t
   13490: 59 20 1c 28  swi	t#1, [sp, 80]
   13494: 99 af 00 02  lwi	[sp, 128],	->t
   13498: 59 20 1c 26  swi	t#1, [sp, 76]
   1349c: 99 af f0 01  lwi	[sp, 124],	->t
   134a0: 59 20 1c 24  swi	t#1, [sp, 72]
   134a4: 19 af a0 01  lwi	[sp, 104],	->u
   134a8: 99 af 90 01  lwi	[sp, 100],	->t
   134ac: a5 1f 8e 07  subw	u#1, t#1,	->t
   134b0: 59 20 1c 22  swi	t#1, [sp, 68]
   134b4: 99 af 10 01  lwi	[sp, 68],	->t
   134b8: 25 0f 0c 06  addw	t#1, zero,	->u
   134bc: 06 f8        c.movr	zero,	->t
   134be: 26 c7        c.setc.eq	u#1, t#1
   134c0: 94 00        C.BSTART	COND, 0x134d2
   134c2: 99 af 10 01  lwi	[sp, 68],	->t
   134c6: 75 40 fc 01  setc.lti	t#1, 31
   134ca: 62 02        C.BSTART	DIRECT, 0x13516
   134cc: 56 f8        c.movi	1,	->t
   134ce: 59 20 1c 2a  swi	t#1, [sp, 84]

00000000000134d2 <.LBB0_35>:
   134d2: 22 02        C.BSTART	DIRECT, 0x13516
   134d4: 19 ef 10 01  lwui	[sp, 68],	->u
   134d8: 56 f8        c.movi	1,	->t
   134da: 25 7f cc 01  sllw	t#1, u#1,	->u
   134de: d6 ff        c.movi	-1,	->t
   134e0: a5 0f 8e 07  addw	u#1, t#1,	->t
   134e4: 59 20 1c 20  swi	t#1, [sp, 64]
   134e8: 19 af 50 01  lwi	[sp, 84],	->u
   134ec: 99 af 00 01  lwi	[sp, 64],	->t
   134f0: c5 2f 8e 07  cmp.and	u#1, t#1,	->t
   134f4: 6a 78        c.swi	t#1, [sp, 60]
   134f6: 19 ef 10 01  lwui	[sp, 68],	->u
   134fa: 99 af 50 01  lwi	[sp, 84],	->t
   134fe: a5 5f cc 01  srlw	t#1, u#1,	->t
   13502: 59 20 1c 2a  swi	t#1, [sp, 84]
   13506: 19 af f0 00  lwi	[sp, 60],	->u
   1350a: 99 af 50 01  lwi	[sp, 84],	->t
   1350e: a5 3f cc 07  orw	t#1, u#1,	->t
   13512: 59 20 1c 2a  swi	t#1, [sp, 84]

0000000000013516 <.LBB0_36>:
   13516: 12 00        C.BSTART	DIRECT, 0x13518

0000000000013518 <.LBB0_37>:
   13518: 74 03        C.BSTART	COND, 0x13586
   1351a: 99 af 20 01  lwi	[sp, 72],	->t
   1351e: 25 0f 0c 06  addw	t#1, zero,	->u
   13522: 99 af 30 01  lwi	[sp, 76],	->t
   13526: 1c 56        c.sext.w	t#1,	->t
   13528: 36 e6        c.setc.ne	t#1, u#1
   1352a: d4 02        C.BSTART	COND, 0x13584
   1352c: 19 af 60 01  lwi	[sp, 88],	->u
   13530: 99 af 50 01  lwi	[sp, 84],	->t
   13534: a5 0f 8e 07  addw	u#1, t#1,	->t
   13538: 6a 70        c.swi	t#1, [sp, 56]
   1353a: 99 af 30 01  lwi	[sp, 76],	->t
   1353e: 6a 68        c.swi	t#1, [sp, 52]
   13540: 95 8f 80 03  addi	sp, 56,	->t
   13544: 95 3f 3c 00  ori	t#1, 3,	->t
   13548: 99 4f 0c 00  lbui	[t#1, 0],	->t
   1354c: b5 2f 8c 00  andiw	t#1, 8,	->t
   13550: 25 0f 0c 06  addw	t#1, zero,	->u
   13554: 06 f8        c.movr	zero,	->t
   13556: 26 c7        c.setc.eq	u#1, t#1
   13558: 62 01        C.BSTART	DIRECT, 0x13584
   1355a: 4a 70        c.lwi	[sp, 56],	->t
   1355c: b5 2f 1c 00  andiw	t#1, 1,	->t
   13560: 6a 60        c.swi	t#1, [sp, 48]
   13562: 4a 70        c.lwi	[sp, 56],	->t
   13564: b5 5f 1c 00  srliw	t#1, 1,	->t
   13568: 6a 70        c.swi	t#1, [sp, 56]
   1356a: 19 af c0 00  lwi	[sp, 48],	->u
   1356e: 4a 70        c.lwi	[sp, 56],	->t
   13570: a5 3f cc 07  orw	t#1, u#1,	->t
   13574: 6a 70        c.swi	t#1, [sp, 56]
   13576: 19 af 40 01  lwi	[sp, 80],	->u
   1357a: 56 f8        c.movi	1,	->t
   1357c: a5 0f 8e 07  addw	u#1, t#1,	->t
   13580: 59 20 1c 28  swi	t#1, [sp, 80]

0000000000013584 <.LBB0_40>:
   13584: 62 05        C.BSTART	DIRECT, 0x13630

0000000000013586 <.LBB0_41>:
   13586: c4 01        C.BSTART	COND, 0x135be
   13588: 15 0f 00 02  addi	zero, 32,	->u
   1358c: 99 af 50 01  lwi	[sp, 84],	->t
   13590: 85 7f cc 01  sll	t#1, u#1,	->t
   13594: 05 5f cc 01  srl	t#1, u#1,	->u
   13598: 99 af 60 01  lwi	[sp, 88],	->t
   1359c: 85 7f dc 01  sll	t#1, u#2,	->t
   135a0: 85 5f dc 01  srl	t#1, u#2,	->t
   135a4: 65 60 cc 07  setc.ltu	t#1, u#1
   135a8: 62 01        C.BSTART	DIRECT, 0x135d4
   135aa: 19 af 60 01  lwi	[sp, 88],	->u
   135ae: 99 af 50 01  lwi	[sp, 84],	->t
   135b2: a5 1f 8e 07  subw	u#1, t#1,	->t
   135b6: 6a 70        c.swi	t#1, [sp, 56]
   135b8: 99 af 30 01  lwi	[sp, 76],	->t
   135bc: 6a 68        c.swi	t#1, [sp, 52]

00000000000135be <.LBB0_43>:
   135be: b2 00        C.BSTART	DIRECT, 0x135d4
   135c0: 19 af 50 01  lwi	[sp, 84],	->u
   135c4: 99 af 60 01  lwi	[sp, 88],	->t
   135c8: a5 1f 8e 07  subw	u#1, t#1,	->t
   135cc: 6a 70        c.swi	t#1, [sp, 56]
   135ce: 99 af 20 01  lwi	[sp, 72],	->t
   135d2: 6a 68        c.swi	t#1, [sp, 52]

00000000000135d4 <.LBB0_44>:
   135d4: c4 00        C.BSTART	COND, 0x135ec
   135d6: 4a 70        c.lwi	[sp, 56],	->t
   135d8: 1c 56        c.sext.w	t#1,	->t
   135da: 06 18        c.movr	zero,	->a1
   135dc: 36 1e        c.setc.ne	t#1, a1
   135de: 01 c0 78 00 96 50    BSTART.STD	CALL, 0x137c0, ra=.LBB0_70
   135e4: 06 10        c.movr	zero,	->a0

00000000000135e6 <.LBB0_70>:
   135e6: 52 0a        C.BSTART	DIRECT, 0x13730
   135e8: 59 20 11 4a  swi	a0, [sp, 148]

00000000000135ec <.LBB0_46>:
   135ec: 12 00        C.BSTART	DIRECT, 0x135ee

00000000000135ee <.LBB0_47>:
   135ee: 04 02        C.BSTART	COND, 0x1362e
   135f0: 95 8f 80 03  addi	sp, 56,	->t
   135f4: 95 3f 3c 00  ori	t#1, 3,	->t
   135f8: 99 4f 0c 00  lbui	[t#1, 0],	->t
   135fc: b5 2f 4c 00  andiw	t#1, 4,	->t
   13600: 75 10 0c 00  setc.nei	t#1, 0
   13604: 44 01        C.BSTART	COND, 0x1362c
   13606: 4a 70        c.lwi	[sp, 56],	->t
   13608: b5 7f 1c 00  slliw	t#1, 1,	->t
   1360c: 6a 70        c.swi	t#1, [sp, 56]
   1360e: 19 af 40 01  lwi	[sp, 80],	->u
   13612: d6 ff        c.movi	-1,	->t
   13614: a5 0f 8e 07  addw	u#1, t#1,	->t
   13618: 59 20 1c 28  swi	t#1, [sp, 80]
   1361c: 99 af 40 01  lwi	[sp, 80],	->t
   13620: 25 0f 0c 06  addw	t#1, zero,	->u
   13624: 06 f8        c.movr	zero,	->t
   13626: 65 40 cc 07  setc.lt	t#1, u#1
   1362a: 22 00        C.BSTART	DIRECT, 0x1362e

000000000001362c <.LBB0_50>:
   1362c: 12 fe        C.BSTART	DIRECT, 0x135ee

000000000001362e <.LBB0_51>:
   1362e: 12 00        C.BSTART	DIRECT, 0x13630

0000000000013630 <.LBB0_52>:
   13630: 14 04        C.BSTART	COND, 0x136b2
   13632: 4a 70        c.lwi	[sp, 56],	->t
   13634: b5 5f 3c 00  srliw	t#1, 3,	->t
   13638: 6a 58        c.swi	t#1, [sp, 44]
   1363a: 4a 70        c.lwi	[sp, 56],	->t
   1363c: b5 5f 2c 00  srliw	t#1, 2,	->t
   13640: b5 2f 1c 00  andiw	t#1, 1,	->t
   13644: 6a 50        c.swi	t#1, [sp, 40]
   13646: 4a 70        c.lwi	[sp, 56],	->t
   13648: b5 5f 1c 00  srliw	t#1, 1,	->t
   1364c: b5 2f 1c 00  andiw	t#1, 1,	->t
   13650: 6a 48        c.swi	t#1, [sp, 36]
   13652: 4a 70        c.lwi	[sp, 56],	->t
   13654: b5 2f 1c 00  andiw	t#1, 1,	->t
   13658: 6a 40        c.swi	t#1, [sp, 32]
   1365a: 4a 50        c.lwi	[sp, 40],	->t
   1365c: 75 00 0c 00  setc.eqi	t#1, 0
   13660: f4 00        C.BSTART	COND, 0x1367e
   13662: 4a 48        c.lwi	[sp, 36],	->t
   13664: 75 10 0c 00  setc.nei	t#1, 0
   13668: b4 00        C.BSTART	COND, 0x1367e
   1366a: 4a 40        c.lwi	[sp, 32],	->t
   1366c: 75 10 0c 00  setc.nei	t#1, 0
   13670: 14 02        C.BSTART	COND, 0x136b2
   13672: 99 cf c0 02  lbui	[sp, 44],	->t
   13676: b5 2f 1c 00  andiw	t#1, 1,	->t
   1367a: 75 00 0c 00  setc.eqi	t#1, 0

000000000001367e <.LBB0_56>:
   1367e: 94 01        C.BSTART	COND, 0x136b0
   13680: 19 af b0 00  lwi	[sp, 44],	->u
   13684: 56 f8        c.movi	1,	->t
   13686: a5 0f 8e 07  addw	u#1, t#1,	->t
   1368a: 6a 58        c.swi	t#1, [sp, 44]
   1368c: 4a 58        c.lwi	[sp, 44],	->t
   1368e: 25 0f 0c 06  addw	t#1, zero,	->u
   13692: 97 0f 00 01  lui	4096,	->t
   13696: 36 c7        c.setc.ne	u#1, t#1
   13698: c2 00        C.BSTART	DIRECT, 0x136b0
   1369a: 4a 58        c.lwi	[sp, 44],	->t
   1369c: b5 5f 1c 00  srliw	t#1, 1,	->t
   136a0: 6a 58        c.swi	t#1, [sp, 44]
   136a2: 19 af 40 01  lwi	[sp, 80],	->u
   136a6: 56 f8        c.movi	1,	->t
   136a8: a5 0f 8e 07  addw	u#1, t#1,	->t
   136ac: 59 20 1c 28  swi	t#1, [sp, 80]

00000000000136b0 <.LBB0_58>:
   136b0: 12 00        C.BSTART	DIRECT, 0x136b2

00000000000136b2 <.LBB0_59>:
   136b2: 04 01        C.BSTART	COND, 0x136d2
   136b4: 99 af 40 01  lwi	[sp, 80],	->t
   136b8: 1c 56        c.sext.w	t#1,	->t
   136ba: 95 01 f0 0f  addi	zero, 255,	->a1
   136be: 65 40 3c 06  setc.lt	t#1, a1
   136c2: 01 40 45 00 d6 50    BSTART.STD	CALL, 0x137d6, ra=.LBB0_69
   136c8: 19 a1 d0 00  lwi	[sp, 52],	->a0

00000000000136cc <.LBB0_69>:
   136cc: 22 03        C.BSTART	DIRECT, 0x13730
   136ce: 59 20 11 4a  swi	a0, [sp, 148]

00000000000136d2 <.LBB0_61>:
   136d2: 24 01        C.BSTART	COND, 0x136f6
   136d4: 99 af 40 01  lwi	[sp, 80],	->t
   136d8: a5 01 0c 06  addw	t#1, zero,	->a1
   136dc: 06 f8        c.movr	zero,	->t
   136de: 65 40 3c 06  setc.lt	t#1, a1
   136e2: 01 c0 37 00 56 51    BSTART.STD	CALL, 0x137c0, ra=.LBB0_68
   136e8: 19 a1 d0 00  lwi	[sp, 52],	->a0
   136ec: 35 71 f1 01  slliw	a0, 31,	->a0

00000000000136f0 <.LBB0_68>:
   136f0: 02 02        C.BSTART	DIRECT, 0x13730
   136f2: 59 20 11 4a  swi	a0, [sp, 148]

00000000000136f6 <.LBB0_63>:
   136f6: 01 c0 32 00 16 56    BSTART.STD	CALL, 0x137c0, ra=.LBB0_67
   136fc: 19 a1 d0 00  lwi	[sp, 52],	->a0
   13700: 35 71 f1 01  slliw	a0, 31,	->a0
   13704: 99 a1 40 01  lwi	[sp, 80],	->a1
   13708: b5 f1 71 01  slliw	a1, 23,	->a1
   1370c: 25 31 31 06  orw	a0, a1,	->a0
   13710: 99 a1 b0 00  lwi	[sp, 44],	->a1
   13714: 7e 00 17 f2 ff ff    hl.lui	8388607,	->a2
   1371a: a5 a1 41 06  andw	a1, a2,	->a1
   1371e: 25 31 31 06  orw	a0, a1,	->a0
   13722: 59 20 11 0e  swi	a0, [sp, 28]
   13726: 19 a1 70 00  lwi	[sp, 28],	->a0

000000000001372a <.LBB0_67>:
   1372a: 32 00        C.BSTART	DIRECT, 0x13730
   1372c: 59 20 11 4a  swi	a0, [sp, 148]

0000000000013730 <.LBB0_64>:
   13730: 00 08        C.BSTART.STD
   13732: 19 e1 50 02  lwui	[sp, 148],	->a0
   13736: 41 30 a5 28  FRET.STK	[ra ~ ra], sp!, 160

000000000001373a <f32_to_bits>:
   1373a: 41 00 a5 06  FENTRY	[ra ~ ra], sp!, 24
   1373e: 00 08        C.BSTART.STD
   13740: 59 20 11 06  swi	a0, [sp, 12]
   13744: 99 ef 30 00  lwui	[sp, 12],	->t
   13748: 6a 10        c.swi	t#1, [sp, 8]
   1374a: 19 a1 20 00  lwi	[sp, 8],	->a0
   1374e: 41 30 a5 06  FRET.STK	[ra ~ ra], sp!, 24

0000000000013752 <f32_is_nan>:
   13752: 41 00 a5 08  FENTRY	[ra ~ ra], sp!, 32
   13756: 54 01        C.BSTART	COND, 0x13780
   13758: 59 20 11 0a  swi	a0, [sp, 20]
   1375c: 4a 28        c.lwi	[sp, 20],	->t
   1375e: b5 5f 7c 01  srliw	t#1, 23,	->t
   13762: b5 2f fc 0f  andiw	t#1, 255,	->t
   13766: 06 f0        c.movr	zero,	->u
   13768: 1c 56        c.sext.w	t#1,	->t
   1376a: 95 01 f0 0f  addi	zero, 255,	->a1
   1376e: 36 1e        c.setc.ne	t#1, a1
   13770: 59 30 1e 02  sdi	u#1, [sp, 8]
   13774: 62 00        C.BSTART	DIRECT, 0x13780
   13776: 4a 28        c.lwi	[sp, 20],	->t
   13778: fe 7f d5 2f fc ff    hl.cmp.andi	t#1, 8388607,	->t
   1377e: 7a 08        c.sdi	t#1, [sp, 8]

0000000000013780 <.LBB2_2>:
   13780: 00 08        C.BSTART.STD
   13782: 5a 08        c.ldi	[sp, 8],	->t
   13784: 15 21 1c 00  andi	t#1, 1,	->a0
   13788: 41 30 a5 08  FRET.STK	[ra ~ ra], sp!, 32

000000000001378c <f32_qnan>:
   1378c: 41 00 a5 04  FENTRY	[ra ~ ra], sp!, 16
   13790: 01 40 0c 00 d6 50    BSTART.STD	CALL, 0x137c0, ra=.LBB3_2
   13796: 17 01 c0 7f  lui	523264,	->a0

000000000001379a <.LBB3_2>:
   1379a: 41 30 a5 04  FRET.STK	[ra ~ ra], sp!, 16

000000000001379e <f32_is_zero>:
   1379e: 41 00 a5 06  FENTRY	[ra ~ ra], sp!, 24
   137a2: 00 08        C.BSTART.STD
   137a4: 59 20 11 06  swi	a0, [sp, 12]
   137a8: 19 af 30 00  lwi	[sp, 12],	->u
   137ac: fe 7f 97 ff ff ff    hl.lui	2147483647,	->t
   137b2: a5 2f 8e 07  andw	u#1, t#1,	->t
   137b6: 1c 56        c.sext.w	t#1,	->t
   137b8: 55 01 0c 00  cmp.eqi	t#1, 0,	->a0
   137bc: 41 30 a5 06  FRET.STK	[ra ~ ra], sp!, 24

00000000000137c0 <f32_from_bits>:
   137c0: 41 00 a5 06  FENTRY	[ra ~ ra], sp!, 24
   137c4: 00 08        C.BSTART.STD
   137c6: 59 20 11 06  swi	a0, [sp, 12]
   137ca: 4a 18        c.lwi	[sp, 12],	->t
   137cc: 6a 10        c.swi	t#1, [sp, 8]
   137ce: 19 e1 20 00  lwui	[sp, 8],	->a0
   137d2: 41 30 a5 06  FRET.STK	[ra ~ ra], sp!, 24

00000000000137d6 <f32_inf>:
   137d6: 41 00 a5 08  FENTRY	[ra ~ ra], sp!, 32
   137da: 01 c0 f9 ff d6 52    BSTART.STD	CALL, 0x137c0, ra=.LBB6_2
   137e0: 59 20 11 0a  swi	a0, [sp, 20]
   137e4: 19 a1 50 00  lwi	[sp, 20],	->a0
   137e8: 35 71 f1 01  slliw	a0, 31,	->a0
   137ec: 17 02 80 7f  lui	522240,	->a2
   137f0: 25 31 41 06  orw	a0, a2,	->a0

00000000000137f4 <.LBB6_2>:
   137f4: 41 30 a5 08  FRET.STK	[ra ~ ra], sp!, 32

00000000000137f8 <__subsf3>:
   137f8: 41 00 a5 0c  FENTRY	[ra ~ ra], sp!, 48
   137fc: 01 c0 cf ff d6 51    BSTART.STD	CALL, 0x1373a, ra=.LBB7_3
   13802: 59 20 11 12  swi	a0, [sp, 36]
   13806: 59 a0 11 10  swi	a1, [sp, 32]
   1380a: 19 e1 80 00  lwui	[sp, 32],	->a0

000000000001380e <.LBB7_3>:
   1380e: 01 c0 ec ff 56 54    BSTART.STD	CALL, 0x137c0, ra=.LBB7_4
   13814: 59 20 11 0e  swi	a0, [sp, 28]
   13818: 19 a1 70 00  lwi	[sp, 28],	->a0
   1381c: 97 01 00 80  lui	524288,	->a1
   13820: 25 41 31 06  xorw	a0, a1,	->a0
   13824: 59 20 11 0e  swi	a0, [sp, 28]
   13828: 19 a1 70 00  lwi	[sp, 28],	->a0
   1382c: 99 e1 90 00  lwui	[sp, 36],	->a1
   13830: 59 b0 11 04  sdi	a1, [sp, 16]

0000000000013834 <.LBB7_4>:
   13834: fe ff 01 40 75 fe 16 51      HL.BSTART.STD	CALL, 0x13208, ra=.LBB7_2
   1383c: 86 18        c.movr	a0,	->a1
   1383e: 19 b1 20 00  ldi	[sp, 16],	->a0

0000000000013842 <.LBB7_2>:
   13842: 41 30 a5 0c  FRET.STK	[ra ~ ra], sp!, 48

0000000000013846 <__mulsf3>:
   13846: 41 00 a5 28  FENTRY	[ra ~ ra], sp!, 160
   1384a: 01 40 bc ff d6 51    BSTART.STD	CALL, 0x1373a, ra=.LBB8_63
   13850: 59 20 11 48  swi	a0, [sp, 144]
   13854: 59 a0 11 46  swi	a1, [sp, 140]
   13858: 19 e1 40 02  lwui	[sp, 144],	->a0

000000000001385c <.LBB8_63>:
   1385c: 01 c0 b7 ff 56 51    BSTART.STD	CALL, 0x1373a, ra=.LBB8_64
   13862: 59 20 11 44  swi	a0, [sp, 136]
   13866: 19 e1 30 02  lwui	[sp, 140],	->a0

000000000001386a <.LBB8_64>:
   1386a: 01 40 ba ff 56 51    BSTART.STD	CALL, 0x13752, ra=.LBB8_65
   13870: 59 20 11 42  swi	a0, [sp, 132]
   13874: 19 a1 20 02  lwi	[sp, 136],	->a0

0000000000013878 <.LBB8_65>:
   13878: 94 00        C.BSTART	COND, 0x1388a
   1387a: 9c 50        c.sext.w	a0,	->t
   1387c: 06 18        c.movr	zero,	->a1
   1387e: 26 1e        c.setc.eq	t#1, a1
   13880: 52 1c        C.BSTART	DIRECT, 0x13c0a
   13882: 99 ef 40 02  lwui	[sp, 144],	->t
   13886: 59 20 1c 4a  swi	t#1, [sp, 148]

000000000001388a <.LBB8_2>:
   1388a: 01 40 b2 ff d6 50    BSTART.STD	CALL, 0x13752, ra=.LBB8_62
   13890: 19 a1 10 02  lwi	[sp, 132],	->a0

0000000000013894 <.LBB8_62>:
   13894: 94 00        C.BSTART	COND, 0x138a6
   13896: 9c 50        c.sext.w	a0,	->t
   13898: 06 18        c.movr	zero,	->a1
   1389a: 26 1e        c.setc.eq	t#1, a1
   1389c: 72 1b        C.BSTART	DIRECT, 0x13c0a
   1389e: 99 ef 30 02  lwui	[sp, 140],	->t
   138a2: 59 20 1c 4a  swi	t#1, [sp, 148]

00000000000138a6 <.LBB8_4>:
   138a6: d4 05        C.BSTART	COND, 0x13960
   138a8: 99 af 20 02  lwi	[sp, 136],	->t
   138ac: b5 5f fc 01  srliw	t#1, 31,	->t
   138b0: 59 20 1c 40  swi	t#1, [sp, 128]
   138b4: 99 af 10 02  lwi	[sp, 132],	->t
   138b8: b5 5f fc 01  srliw	t#1, 31,	->t
   138bc: 59 20 1c 3e  swi	t#1, [sp, 124]
   138c0: 19 af 00 02  lwi	[sp, 128],	->u
   138c4: 99 af f0 01  lwi	[sp, 124],	->t
   138c8: a5 4f 8e 07  xorw	u#1, t#1,	->t
   138cc: 59 20 1c 3c  swi	t#1, [sp, 120]
   138d0: 99 af 20 02  lwi	[sp, 136],	->t
   138d4: b5 5f 7c 01  srliw	t#1, 23,	->t
   138d8: b5 2f fc 0f  andiw	t#1, 255,	->t
   138dc: 59 20 1c 3a  swi	t#1, [sp, 116]
   138e0: 99 af 10 02  lwi	[sp, 132],	->t
   138e4: b5 5f 7c 01  srliw	t#1, 23,	->t
   138e8: b5 2f fc 0f  andiw	t#1, 255,	->t
   138ec: 59 20 1c 38  swi	t#1, [sp, 112]
   138f0: 99 af 20 02  lwi	[sp, 136],	->t
   138f4: 7e 00 17 ff ff ff    hl.lui	8388607,	->u
   138fa: a5 2f cc 07  andw	t#1, u#1,	->t
   138fe: 59 20 1c 36  swi	t#1, [sp, 108]
   13902: 99 af 10 02  lwi	[sp, 132],	->t
   13906: a5 2f cc 07  andw	t#1, u#1,	->t
   1390a: 59 20 1c 34  swi	t#1, [sp, 104]
   1390e: 99 af d0 01  lwi	[sp, 116],	->t
   13912: 25 0f 0c 06  addw	t#1, zero,	->u
   13916: 95 0f f0 0f  addi	zero, 255,	->t
   1391a: 36 c7        c.setc.ne	u#1, t#1
   1391c: b4 00        C.BSTART	COND, 0x13932
   1391e: 99 af b0 01  lwi	[sp, 108],	->t
   13922: 1c 56        c.sext.w	t#1,	->t
   13924: 06 18        c.movr	zero,	->a1
   13926: 26 1e        c.setc.eq	t#1, a1
   13928: 12 17        C.BSTART	DIRECT, 0x13c0a
   1392a: 99 ef 40 02  lwui	[sp, 144],	->t
   1392e: 59 20 1c 4a  swi	t#1, [sp, 148]

0000000000013932 <.LBB8_7>:
   13932: 01 40 9b ff d6 50    BSTART.STD	CALL, 0x1379e, ra=.LBB8_61
   13938: 19 a1 10 02  lwi	[sp, 132],	->a0

000000000001393c <.LBB8_61>:
   1393c: a4 00        C.BSTART	COND, 0x13950
   1393e: 9c 50        c.sext.w	a0,	->t
   13940: 06 18        c.movr	zero,	->a1
   13942: 26 1e        c.setc.eq	t#1, a1
   13944: 01 40 92 ff 56 50    BSTART.STD	CALL, 0x1378c, ra=.LBB8_60

000000000001394a <.LBB8_60>:
   1394a: 02 16        C.BSTART	DIRECT, 0x13c0a
   1394c: 59 20 11 4a  swi	a0, [sp, 148]

0000000000013950 <.LBB8_9>:
   13950: 01 c0 a1 ff d6 50    BSTART.STD	CALL, 0x137d6, ra=.LBB8_59
   13956: 19 a1 e0 01  lwi	[sp, 120],	->a0

000000000001395a <.LBB8_59>:
   1395a: 82 15        C.BSTART	DIRECT, 0x13c0a
   1395c: 59 20 11 4a  swi	a0, [sp, 148]

0000000000013960 <.LBB8_10>:
   13960: 74 02        C.BSTART	COND, 0x139ae
   13962: 99 af c0 01  lwi	[sp, 112],	->t
   13966: 75 10 fc 0f  setc.nei	t#1, 255
   1396a: b4 00        C.BSTART	COND, 0x13980
   1396c: 99 af a0 01  lwi	[sp, 104],	->t
   13970: 1c 56        c.sext.w	t#1,	->t
   13972: 06 18        c.movr	zero,	->a1
   13974: 26 1e        c.setc.eq	t#1, a1
   13976: a2 14        C.BSTART	DIRECT, 0x13c0a
   13978: 99 ef 30 02  lwui	[sp, 140],	->t
   1397c: 59 20 1c 4a  swi	t#1, [sp, 148]

0000000000013980 <.LBB8_13>:
   13980: 01 c0 87 ff d6 50    BSTART.STD	CALL, 0x1379e, ra=.LBB8_58
   13986: 19 a1 20 02  lwi	[sp, 136],	->a0

000000000001398a <.LBB8_58>:
   1398a: a4 00        C.BSTART	COND, 0x1399e
   1398c: 9c 50        c.sext.w	a0,	->t
   1398e: 06 18        c.movr	zero,	->a1
   13990: 26 1e        c.setc.eq	t#1, a1
   13992: 01 c0 7e ff 56 50    BSTART.STD	CALL, 0x1378c, ra=.LBB8_57

0000000000013998 <.LBB8_57>:
   13998: 92 13        C.BSTART	DIRECT, 0x13c0a
   1399a: 59 20 11 4a  swi	a0, [sp, 148]

000000000001399e <.LBB8_15>:
   1399e: 01 40 8e ff d6 50    BSTART.STD	CALL, 0x137d6, ra=.LBB8_56
   139a4: 19 a1 e0 01  lwi	[sp, 120],	->a0

00000000000139a8 <.LBB8_56>:
   139a8: 12 13        C.BSTART	DIRECT, 0x13c0a
   139aa: 59 20 11 4a  swi	a0, [sp, 148]

00000000000139ae <.LBB8_16>:
   139ae: 01 40 7c ff d6 50    BSTART.STD	CALL, 0x1379e, ra=.LBB8_55
   139b4: 19 a1 20 02  lwi	[sp, 136],	->a0

00000000000139b8 <.LBB8_55>:
   139b8: d4 00        C.BSTART	COND, 0x139d2
   139ba: 9c 50        c.sext.w	a0,	->t
   139bc: 06 18        c.movr	zero,	->a1
   139be: 36 1e        c.setc.ne	t#1, a1
   139c0: 01 c0 77 ff d6 50    BSTART.STD	CALL, 0x1379e, ra=.LBB8_54
   139c6: 19 a1 10 02  lwi	[sp, 132],	->a0

00000000000139ca <.LBB8_54>:
   139ca: e4 00        C.BSTART	COND, 0x139e6
   139cc: 9c 50        c.sext.w	a0,	->t
   139ce: 06 18        c.movr	zero,	->a1
   139d0: 26 1e        c.setc.eq	t#1, a1

00000000000139d2 <.LBB8_18>:
   139d2: 01 c0 7b ff 56 51    BSTART.STD	CALL, 0x137c0, ra=.LBB8_53
   139d8: 19 a1 e0 01  lwi	[sp, 120],	->a0
   139dc: 35 71 f1 01  slliw	a0, 31,	->a0

00000000000139e0 <.LBB8_53>:
   139e0: 52 11        C.BSTART	DIRECT, 0x13c0a
   139e2: 59 20 11 4a  swi	a0, [sp, 148]

00000000000139e6 <.LBB8_19>:
   139e6: d4 00        C.BSTART	COND, 0x13a00
   139e8: 99 af d0 01  lwi	[sp, 116],	->t
   139ec: 75 00 0c 00  setc.eqi	t#1, 0
   139f0: c2 00        C.BSTART	DIRECT, 0x13a08
   139f2: 19 af d0 01  lwi	[sp, 116],	->u
   139f6: b5 1f f0 07  subiw	zero, 127,	->t
   139fa: a5 0f 8e 07  addw	u#1, t#1,	->t
   139fe: 7a 20        c.sdi	t#1, [sp, 32]

0000000000013a00 <.LBB8_21>:
   13a00: 42 00        C.BSTART	DIRECT, 0x13a08
   13a02: b5 1f e0 07  subiw	zero, 126,	->t
   13a06: 7a 20        c.sdi	t#1, [sp, 32]

0000000000013a08 <.LBB8_22>:
   13a08: 04 01        C.BSTART	COND, 0x13a28
   13a0a: 5a 20        c.ldi	[sp, 32],	->t
   13a0c: 59 20 1c 32  swi	t#1, [sp, 100]
   13a10: 99 af c0 01  lwi	[sp, 112],	->t
   13a14: 75 00 0c 00  setc.eqi	t#1, 0
   13a18: c2 00        C.BSTART	DIRECT, 0x13a30
   13a1a: 19 af c0 01  lwi	[sp, 112],	->u
   13a1e: b5 1f f0 07  subiw	zero, 127,	->t
   13a22: a5 0f 8e 07  addw	u#1, t#1,	->t
   13a26: 7a 18        c.sdi	t#1, [sp, 24]

0000000000013a28 <.LBB8_24>:
   13a28: 42 00        C.BSTART	DIRECT, 0x13a30
   13a2a: b5 1f e0 07  subiw	zero, 126,	->t
   13a2e: 7a 18        c.sdi	t#1, [sp, 24]

0000000000013a30 <.LBB8_25>:
   13a30: 04 01        C.BSTART	COND, 0x13a50
   13a32: 5a 18        c.ldi	[sp, 24],	->t
   13a34: 59 20 1c 30  swi	t#1, [sp, 96]
   13a38: 99 af d0 01  lwi	[sp, 116],	->t
   13a3c: 75 00 0c 00  setc.eqi	t#1, 0
   13a40: c2 00        C.BSTART	DIRECT, 0x13a58
   13a42: 19 af b0 01  lwi	[sp, 108],	->u
   13a46: 97 0f 80 00  lui	2048,	->t
   13a4a: a5 3f 8e 07  orw	u#1, t#1,	->t
   13a4e: 7a 10        c.sdi	t#1, [sp, 16]

0000000000013a50 <.LBB8_27>:
   13a50: 42 00        C.BSTART	DIRECT, 0x13a58
   13a52: 99 af b0 01  lwi	[sp, 108],	->t
   13a56: 7a 10        c.sdi	t#1, [sp, 16]

0000000000013a58 <.LBB8_28>:
   13a58: 04 01        C.BSTART	COND, 0x13a78
   13a5a: 5a 10        c.ldi	[sp, 16],	->t
   13a5c: 59 20 1c 2e  swi	t#1, [sp, 92]
   13a60: 99 af c0 01  lwi	[sp, 112],	->t
   13a64: 75 00 0c 00  setc.eqi	t#1, 0
   13a68: c2 00        C.BSTART	DIRECT, 0x13a80
   13a6a: 19 af a0 01  lwi	[sp, 104],	->u
   13a6e: 97 0f 80 00  lui	2048,	->t
   13a72: a5 3f 8e 07  orw	u#1, t#1,	->t
   13a76: 7a 08        c.sdi	t#1, [sp, 8]

0000000000013a78 <.LBB8_30>:
   13a78: 42 00        C.BSTART	DIRECT, 0x13a80
   13a7a: 99 af a0 01  lwi	[sp, 104],	->t
   13a7e: 7a 08        c.sdi	t#1, [sp, 8]

0000000000013a80 <.LBB8_31>:
   13a80: b4 02        C.BSTART	COND, 0x13ad6
   13a82: 5a 08        c.ldi	[sp, 8],	->t
   13a84: 59 20 1c 2c  swi	t#1, [sp, 88]
   13a88: 19 ef 70 01  lwui	[sp, 92],	->u
   13a8c: 99 ef 60 01  lwui	[sp, 88],	->t
   13a90: c7 0f 8e 01  mul	u#1, t#1,	->t
   13a94: 7a 50        c.sdi	t#1, [sp, 80]
   13a96: 19 af 90 01  lwi	[sp, 100],	->u
   13a9a: 99 af 80 01  lwi	[sp, 96],	->t
   13a9e: a5 0f 8e 07  addw	u#1, t#1,	->t
   13aa2: 59 20 1c 26  swi	t#1, [sp, 76]
   13aa6: 95 8f 00 05  addi	sp, 80,	->t
   13aaa: 95 3f 5c 00  ori	t#1, 5,	->t
   13aae: 99 4f 0c 00  lbui	[t#1, 0],	->t
   13ab2: b5 2f 0c 08  andiw	t#1, 128,	->t
   13ab6: 25 0f 0c 06  addw	t#1, zero,	->u
   13aba: 06 f8        c.movr	zero,	->t
   13abc: 26 c7        c.setc.eq	u#1, t#1
   13abe: c2 00        C.BSTART	DIRECT, 0x13ad6
   13ac0: 5a 50        c.ldi	[sp, 80],	->t
   13ac2: 95 5f 1c 00  srli	t#1, 1,	->t
   13ac6: 7a 50        c.sdi	t#1, [sp, 80]
   13ac8: 19 af 30 01  lwi	[sp, 76],	->u
   13acc: 56 f8        c.movi	1,	->t
   13ace: a5 0f 8e 07  addw	u#1, t#1,	->t
   13ad2: 59 20 1c 26  swi	t#1, [sp, 76]

0000000000013ad6 <.LBB8_33>:
   13ad6: 54 01        C.BSTART	COND, 0x13b00
   13ad8: 5a 50        c.ldi	[sp, 80],	->t
   13ada: 95 5f 4c 01  srli	t#1, 20,	->t
   13ade: 7a 40        c.sdi	t#1, [sp, 64]
   13ae0: 19 af 40 01  lwi	[sp, 80],	->u
   13ae4: 0e 00 97 ff ff ff    hl.lui	1048575,	->t
   13aea: a5 2f 8e 07  andw	u#1, t#1,	->t
   13aee: 25 0f 0c 06  addw	t#1, zero,	->u
   13af2: 06 f8        c.movr	zero,	->t
   13af4: 26 c7        c.setc.eq	u#1, t#1
   13af6: 52 00        C.BSTART	DIRECT, 0x13b00
   13af8: 5a 40        c.ldi	[sp, 64],	->t
   13afa: 95 3f 1c 00  ori	t#1, 1,	->t
   13afe: 7a 40        c.sdi	t#1, [sp, 64]

0000000000013b00 <.LBB8_35>:
   13b00: 14 04        C.BSTART	COND, 0x13b82
   13b02: 5a 40        c.ldi	[sp, 64],	->t
   13b04: 95 5f 3c 00  srli	t#1, 3,	->t
   13b08: 6a 78        c.swi	t#1, [sp, 60]
   13b0a: 5a 40        c.ldi	[sp, 64],	->t
   13b0c: 95 5f 2c 00  srli	t#1, 2,	->t
   13b10: 95 2f 1c 00  andi	t#1, 1,	->t
   13b14: 6a 70        c.swi	t#1, [sp, 56]
   13b16: 5a 40        c.ldi	[sp, 64],	->t
   13b18: 95 5f 1c 00  srli	t#1, 1,	->t
   13b1c: 95 2f 1c 00  andi	t#1, 1,	->t
   13b20: 6a 68        c.swi	t#1, [sp, 52]
   13b22: 5a 40        c.ldi	[sp, 64],	->t
   13b24: 95 2f 1c 00  andi	t#1, 1,	->t
   13b28: 6a 60        c.swi	t#1, [sp, 48]
   13b2a: 4a 70        c.lwi	[sp, 56],	->t
   13b2c: 75 00 0c 00  setc.eqi	t#1, 0
   13b30: f4 00        C.BSTART	COND, 0x13b4e
   13b32: 4a 68        c.lwi	[sp, 52],	->t
   13b34: 75 10 0c 00  setc.nei	t#1, 0
   13b38: b4 00        C.BSTART	COND, 0x13b4e
   13b3a: 4a 60        c.lwi	[sp, 48],	->t
   13b3c: 75 10 0c 00  setc.nei	t#1, 0
   13b40: 14 02        C.BSTART	COND, 0x13b82
   13b42: 99 cf c0 03  lbui	[sp, 60],	->t
   13b46: b5 2f 1c 00  andiw	t#1, 1,	->t
   13b4a: 75 00 0c 00  setc.eqi	t#1, 0

0000000000013b4e <.LBB8_39>:
   13b4e: 94 01        C.BSTART	COND, 0x13b80
   13b50: 19 af f0 00  lwi	[sp, 60],	->u
   13b54: 56 f8        c.movi	1,	->t
   13b56: a5 0f 8e 07  addw	u#1, t#1,	->t
   13b5a: 6a 78        c.swi	t#1, [sp, 60]
   13b5c: 4a 78        c.lwi	[sp, 60],	->t
   13b5e: 25 0f 0c 06  addw	t#1, zero,	->u
   13b62: 97 0f 00 01  lui	4096,	->t
   13b66: 36 c7        c.setc.ne	u#1, t#1
   13b68: c2 00        C.BSTART	DIRECT, 0x13b80
   13b6a: 4a 78        c.lwi	[sp, 60],	->t
   13b6c: b5 5f 1c 00  srliw	t#1, 1,	->t
   13b70: 6a 78        c.swi	t#1, [sp, 60]
   13b72: 19 af 30 01  lwi	[sp, 76],	->u
   13b76: 56 f8        c.movi	1,	->t
   13b78: a5 0f 8e 07  addw	u#1, t#1,	->t
   13b7c: 59 20 1c 26  swi	t#1, [sp, 76]

0000000000013b80 <.LBB8_41>:
   13b80: 12 00        C.BSTART	DIRECT, 0x13b82

0000000000013b82 <.LBB8_42>:
   13b82: 64 01        C.BSTART	COND, 0x13bae
   13b84: 19 af 30 01  lwi	[sp, 76],	->u
   13b88: b5 0f f0 07  addiw	zero, 127,	->t
   13b8c: a5 0f 8e 07  addw	u#1, t#1,	->t
   13b90: 6a 58        c.swi	t#1, [sp, 44]
   13b92: 4a 58        c.lwi	[sp, 44],	->t
   13b94: 1c 56        c.sext.w	t#1,	->t
   13b96: 95 01 f0 0f  addi	zero, 255,	->a1
   13b9a: 65 40 3c 06  setc.lt	t#1, a1
   13b9e: 01 40 0e ff d6 50    BSTART.STD	CALL, 0x137d6, ra=.LBB8_52
   13ba4: 19 a1 e0 01  lwi	[sp, 120],	->a0

0000000000013ba8 <.LBB8_52>:
   13ba8: 12 03        C.BSTART	DIRECT, 0x13c0a
   13baa: 59 20 11 4a  swi	a0, [sp, 148]

0000000000013bae <.LBB8_44>:
   13bae: 14 01        C.BSTART	COND, 0x13bd0
   13bb0: 4a 58        c.lwi	[sp, 44],	->t
   13bb2: a5 01 0c 06  addw	t#1, zero,	->a1
   13bb6: 06 f8        c.movr	zero,	->t
   13bb8: 65 40 3c 06  setc.lt	t#1, a1
   13bbc: 01 40 01 ff 56 51    BSTART.STD	CALL, 0x137c0, ra=.LBB8_51
   13bc2: 19 a1 e0 01  lwi	[sp, 120],	->a0
   13bc6: 35 71 f1 01  slliw	a0, 31,	->a0

0000000000013bca <.LBB8_51>:
   13bca: 02 02        C.BSTART	DIRECT, 0x13c0a
   13bcc: 59 20 11 4a  swi	a0, [sp, 148]

0000000000013bd0 <.LBB8_46>:
   13bd0: 01 40 fc fe 16 56    BSTART.STD	CALL, 0x137c0, ra=.LBB8_50
   13bd6: 19 a1 e0 01  lwi	[sp, 120],	->a0
   13bda: 35 71 f1 01  slliw	a0, 31,	->a0
   13bde: 99 a1 b0 00  lwi	[sp, 44],	->a1
   13be2: b5 f1 71 01  slliw	a1, 23,	->a1
   13be6: 25 31 31 06  orw	a0, a1,	->a0
   13bea: 99 a1 f0 00  lwi	[sp, 60],	->a1
   13bee: 7e 00 17 f2 ff ff    hl.lui	8388607,	->a2
   13bf4: a5 a1 41 06  andw	a1, a2,	->a1
   13bf8: 25 31 31 06  orw	a0, a1,	->a0
   13bfc: 59 20 11 14  swi	a0, [sp, 40]
   13c00: 19 a1 a0 00  lwi	[sp, 40],	->a0

0000000000013c04 <.LBB8_50>:
   13c04: 32 00        C.BSTART	DIRECT, 0x13c0a
   13c06: 59 20 11 4a  swi	a0, [sp, 148]

0000000000013c0a <.LBB8_47>:
   13c0a: 00 08        C.BSTART.STD
   13c0c: 19 e1 50 02  lwui	[sp, 148],	->a0
   13c10: 41 30 a5 28  FRET.STK	[ra ~ ra], sp!, 160

0000000000013c14 <__divsf3>:
   13c14: 41 00 a5 28  FENTRY	[ra ~ ra], sp!, 160
   13c18: 01 c0 c8 fe d6 51    BSTART.STD	CALL, 0x1373a, ra=.LBB9_66
   13c1e: 59 20 11 48  swi	a0, [sp, 144]
   13c22: 59 a0 11 46  swi	a1, [sp, 140]
   13c26: 19 e1 40 02  lwui	[sp, 144],	->a0

0000000000013c2a <.LBB9_66>:
   13c2a: 01 40 c4 fe 56 51    BSTART.STD	CALL, 0x1373a, ra=.LBB9_67
   13c30: 59 20 11 44  swi	a0, [sp, 136]
   13c34: 19 e1 30 02  lwui	[sp, 140],	->a0

0000000000013c38 <.LBB9_67>:
   13c38: 01 c0 c6 fe 56 51    BSTART.STD	CALL, 0x13752, ra=.LBB9_68
   13c3e: 59 20 11 42  swi	a0, [sp, 132]
   13c42: 19 a1 20 02  lwi	[sp, 136],	->a0

0000000000013c46 <.LBB9_68>:
   13c46: 94 00        C.BSTART	COND, 0x13c58
   13c48: 9c 50        c.sext.w	a0,	->t
   13c4a: 06 18        c.movr	zero,	->a1
   13c4c: 26 1e        c.setc.eq	t#1, a1
   13c4e: 82 1c        C.BSTART	DIRECT, 0x13fde
   13c50: 99 ef 40 02  lwui	[sp, 144],	->t
   13c54: 59 20 1c 4a  swi	t#1, [sp, 148]

0000000000013c58 <.LBB9_2>:
   13c58: 01 c0 be fe d6 50    BSTART.STD	CALL, 0x13752, ra=.LBB9_65
   13c5e: 19 a1 10 02  lwi	[sp, 132],	->a0

0000000000013c62 <.LBB9_65>:
   13c62: 94 00        C.BSTART	COND, 0x13c74
   13c64: 9c 50        c.sext.w	a0,	->t
   13c66: 06 18        c.movr	zero,	->a1
   13c68: 26 1e        c.setc.eq	t#1, a1
   13c6a: a2 1b        C.BSTART	DIRECT, 0x13fde
   13c6c: 99 ef 30 02  lwui	[sp, 140],	->t
   13c70: 59 20 1c 4a  swi	t#1, [sp, 148]

0000000000013c74 <.LBB9_4>:
   13c74: d4 05        C.BSTART	COND, 0x13d2e
   13c76: 99 af 20 02  lwi	[sp, 136],	->t
   13c7a: b5 5f fc 01  srliw	t#1, 31,	->t
   13c7e: 59 20 1c 40  swi	t#1, [sp, 128]
   13c82: 99 af 10 02  lwi	[sp, 132],	->t
   13c86: b5 5f fc 01  srliw	t#1, 31,	->t
   13c8a: 59 20 1c 3e  swi	t#1, [sp, 124]
   13c8e: 19 af 00 02  lwi	[sp, 128],	->u
   13c92: 99 af f0 01  lwi	[sp, 124],	->t
   13c96: a5 4f 8e 07  xorw	u#1, t#1,	->t
   13c9a: 59 20 1c 3c  swi	t#1, [sp, 120]
   13c9e: 99 af 20 02  lwi	[sp, 136],	->t
   13ca2: b5 5f 7c 01  srliw	t#1, 23,	->t
   13ca6: b5 2f fc 0f  andiw	t#1, 255,	->t
   13caa: 59 20 1c 3a  swi	t#1, [sp, 116]
   13cae: 99 af 10 02  lwi	[sp, 132],	->t
   13cb2: b5 5f 7c 01  srliw	t#1, 23,	->t
   13cb6: b5 2f fc 0f  andiw	t#1, 255,	->t
   13cba: 59 20 1c 38  swi	t#1, [sp, 112]
   13cbe: 99 af 20 02  lwi	[sp, 136],	->t
   13cc2: 7e 00 17 ff ff ff    hl.lui	8388607,	->u
   13cc8: a5 2f cc 07  andw	t#1, u#1,	->t
   13ccc: 59 20 1c 36  swi	t#1, [sp, 108]
   13cd0: 99 af 10 02  lwi	[sp, 132],	->t
   13cd4: a5 2f cc 07  andw	t#1, u#1,	->t
   13cd8: 59 20 1c 34  swi	t#1, [sp, 104]
   13cdc: 99 af d0 01  lwi	[sp, 116],	->t
   13ce0: 25 0f 0c 06  addw	t#1, zero,	->u
   13ce4: 95 0f f0 0f  addi	zero, 255,	->t
   13ce8: 36 c7        c.setc.ne	u#1, t#1
   13cea: b4 00        C.BSTART	COND, 0x13d00
   13cec: 99 af b0 01  lwi	[sp, 108],	->t
   13cf0: 1c 56        c.sext.w	t#1,	->t
   13cf2: 06 18        c.movr	zero,	->a1
   13cf4: 26 1e        c.setc.eq	t#1, a1
   13cf6: 42 17        C.BSTART	DIRECT, 0x13fde
   13cf8: 99 ef 40 02  lwui	[sp, 144],	->t
   13cfc: 59 20 1c 4a  swi	t#1, [sp, 148]

0000000000013d00 <.LBB9_7>:
   13d00: 01 40 ba 00 d6 50    BSTART.STD	CALL, 0x13fe8, ra=.LBB9_64
   13d06: 19 a1 10 02  lwi	[sp, 132],	->a0

0000000000013d0a <.LBB9_64>:
   13d0a: a4 00        C.BSTART	COND, 0x13d1e
   13d0c: 9c 50        c.sext.w	a0,	->t
   13d0e: 06 18        c.movr	zero,	->a1
   13d10: 26 1e        c.setc.eq	t#1, a1
   13d12: 01 c0 9e fe 56 50    BSTART.STD	CALL, 0x1378c, ra=.LBB9_63

0000000000013d18 <.LBB9_63>:
   13d18: 32 16        C.BSTART	DIRECT, 0x13fde
   13d1a: 59 20 11 4a  swi	a0, [sp, 148]

0000000000013d1e <.LBB9_9>:
   13d1e: 01 40 ae fe d6 50    BSTART.STD	CALL, 0x137d6, ra=.LBB9_62
   13d24: 19 a1 e0 01  lwi	[sp, 120],	->a0

0000000000013d28 <.LBB9_62>:
   13d28: b2 15        C.BSTART	DIRECT, 0x13fde
   13d2a: 59 20 11 4a  swi	a0, [sp, 148]

0000000000013d2e <.LBB9_10>:
   13d2e: a4 01        C.BSTART	COND, 0x13d62
   13d30: 99 af c0 01  lwi	[sp, 112],	->t
   13d34: 75 10 fc 0f  setc.nei	t#1, 255
   13d38: b4 00        C.BSTART	COND, 0x13d4e
   13d3a: 99 af a0 01  lwi	[sp, 104],	->t
   13d3e: 1c 56        c.sext.w	t#1,	->t
   13d40: 06 18        c.movr	zero,	->a1
   13d42: 26 1e        c.setc.eq	t#1, a1
   13d44: d2 14        C.BSTART	DIRECT, 0x13fde
   13d46: 99 ef 30 02  lwui	[sp, 140],	->t
   13d4a: 59 20 1c 4a  swi	t#1, [sp, 148]

0000000000013d4e <.LBB9_13>:
   13d4e: 01 c0 9c fe 56 51    BSTART.STD	CALL, 0x137c0, ra=.LBB9_61
   13d54: 19 a1 e0 01  lwi	[sp, 120],	->a0
   13d58: 35 71 f1 01  slliw	a0, 31,	->a0

0000000000013d5c <.LBB9_61>:
   13d5c: 12 14        C.BSTART	DIRECT, 0x13fde
   13d5e: 59 20 11 4a  swi	a0, [sp, 148]

0000000000013d62 <.LBB9_14>:
   13d62: 01 40 8f fe d6 50    BSTART.STD	CALL, 0x1379e, ra=.LBB9_60
   13d68: 19 a1 10 02  lwi	[sp, 132],	->a0

0000000000013d6c <.LBB9_60>:
   13d6c: a4 01        C.BSTART	COND, 0x13da0
   13d6e: 75 00 01 00  setc.eqi	a0, 0
   13d72: 01 40 8b fe d6 50    BSTART.STD	CALL, 0x1379e, ra=.LBB9_59
   13d78: 19 a1 20 02  lwi	[sp, 136],	->a0

0000000000013d7c <.LBB9_59>:
   13d7c: a4 00        C.BSTART	COND, 0x13d90
   13d7e: 9c 50        c.sext.w	a0,	->t
   13d80: 06 18        c.movr	zero,	->a1
   13d82: 26 1e        c.setc.eq	t#1, a1
   13d84: 01 40 82 fe 56 50    BSTART.STD	CALL, 0x1378c, ra=.LBB9_58

0000000000013d8a <.LBB9_58>:
   13d8a: a2 12        C.BSTART	DIRECT, 0x13fde
   13d8c: 59 20 11 4a  swi	a0, [sp, 148]

0000000000013d90 <.LBB9_17>:
   13d90: 01 c0 91 fe d6 50    BSTART.STD	CALL, 0x137d6, ra=.LBB9_57
   13d96: 19 a1 e0 01  lwi	[sp, 120],	->a0

0000000000013d9a <.LBB9_57>:
   13d9a: 22 12        C.BSTART	DIRECT, 0x13fde
   13d9c: 59 20 11 4a  swi	a0, [sp, 148]

0000000000013da0 <.LBB9_18>:
   13da0: 01 c0 7f fe d6 50    BSTART.STD	CALL, 0x1379e, ra=.LBB9_56
   13da6: 19 a1 20 02  lwi	[sp, 136],	->a0

0000000000013daa <.LBB9_56>:
   13daa: e4 00        C.BSTART	COND, 0x13dc6
   13dac: 9c 50        c.sext.w	a0,	->t
   13dae: 06 18        c.movr	zero,	->a1
   13db0: 26 1e        c.setc.eq	t#1, a1
   13db2: 01 c0 83 fe 56 51    BSTART.STD	CALL, 0x137c0, ra=.LBB9_55
   13db8: 19 a1 e0 01  lwi	[sp, 120],	->a0
   13dbc: 35 71 f1 01  slliw	a0, 31,	->a0

0000000000013dc0 <.LBB9_55>:
   13dc0: f2 10        C.BSTART	DIRECT, 0x13fde
   13dc2: 59 20 11 4a  swi	a0, [sp, 148]

0000000000013dc6 <.LBB9_20>:
   13dc6: d4 00        C.BSTART	COND, 0x13de0
   13dc8: 99 af d0 01  lwi	[sp, 116],	->t
   13dcc: 75 00 0c 00  setc.eqi	t#1, 0
   13dd0: c2 00        C.BSTART	DIRECT, 0x13de8
   13dd2: 19 af d0 01  lwi	[sp, 116],	->u
   13dd6: b5 1f f0 07  subiw	zero, 127,	->t
   13dda: a5 0f 8e 07  addw	u#1, t#1,	->t
   13dde: 7a 20        c.sdi	t#1, [sp, 32]

0000000000013de0 <.LBB9_22>:
   13de0: 42 00        C.BSTART	DIRECT, 0x13de8
   13de2: b5 1f e0 07  subiw	zero, 126,	->t
   13de6: 7a 20        c.sdi	t#1, [sp, 32]

0000000000013de8 <.LBB9_23>:
   13de8: 04 01        C.BSTART	COND, 0x13e08
   13dea: 5a 20        c.ldi	[sp, 32],	->t
   13dec: 59 20 1c 32  swi	t#1, [sp, 100]
   13df0: 99 af c0 01  lwi	[sp, 112],	->t
   13df4: 75 00 0c 00  setc.eqi	t#1, 0
   13df8: c2 00        C.BSTART	DIRECT, 0x13e10
   13dfa: 19 af c0 01  lwi	[sp, 112],	->u
   13dfe: b5 1f f0 07  subiw	zero, 127,	->t
   13e02: a5 0f 8e 07  addw	u#1, t#1,	->t
   13e06: 7a 18        c.sdi	t#1, [sp, 24]

0000000000013e08 <.LBB9_25>:
   13e08: 42 00        C.BSTART	DIRECT, 0x13e10
   13e0a: b5 1f e0 07  subiw	zero, 126,	->t
   13e0e: 7a 18        c.sdi	t#1, [sp, 24]

0000000000013e10 <.LBB9_26>:
   13e10: 04 01        C.BSTART	COND, 0x13e30
   13e12: 5a 18        c.ldi	[sp, 24],	->t
   13e14: 59 20 1c 30  swi	t#1, [sp, 96]
   13e18: 99 af d0 01  lwi	[sp, 116],	->t
   13e1c: 75 00 0c 00  setc.eqi	t#1, 0
   13e20: c2 00        C.BSTART	DIRECT, 0x13e38
   13e22: 19 af b0 01  lwi	[sp, 108],	->u
   13e26: 97 0f 80 00  lui	2048,	->t
   13e2a: a5 3f 8e 07  orw	u#1, t#1,	->t
   13e2e: 7a 10        c.sdi	t#1, [sp, 16]

0000000000013e30 <.LBB9_28>:
   13e30: 42 00        C.BSTART	DIRECT, 0x13e38
   13e32: 99 af b0 01  lwi	[sp, 108],	->t
   13e36: 7a 10        c.sdi	t#1, [sp, 16]

0000000000013e38 <.LBB9_29>:
   13e38: 04 01        C.BSTART	COND, 0x13e58
   13e3a: 5a 10        c.ldi	[sp, 16],	->t
   13e3c: 59 20 1c 2e  swi	t#1, [sp, 92]
   13e40: 99 af c0 01  lwi	[sp, 112],	->t
   13e44: 75 00 0c 00  setc.eqi	t#1, 0
   13e48: c2 00        C.BSTART	DIRECT, 0x13e60
   13e4a: 19 af a0 01  lwi	[sp, 104],	->u
   13e4e: 97 0f 80 00  lui	2048,	->t
   13e52: a5 3f 8e 07  orw	u#1, t#1,	->t
   13e56: 7a 08        c.sdi	t#1, [sp, 8]

0000000000013e58 <.LBB9_31>:
   13e58: 42 00        C.BSTART	DIRECT, 0x13e60
   13e5a: 99 af a0 01  lwi	[sp, 104],	->t
   13e5e: 7a 08        c.sdi	t#1, [sp, 8]

0000000000013e60 <.LBB9_32>:
   13e60: 54 02        C.BSTART	COND, 0x13eaa
   13e62: 5a 08        c.ldi	[sp, 8],	->t
   13e64: 59 20 1c 2c  swi	t#1, [sp, 88]
   13e68: 19 af 90 01  lwi	[sp, 100],	->u
   13e6c: 99 af 80 01  lwi	[sp, 96],	->t
   13e70: a5 1f 8e 07  subw	u#1, t#1,	->t
   13e74: 59 20 1c 2a  swi	t#1, [sp, 84]
   13e78: 99 ef 70 01  lwui	[sp, 92],	->t
   13e7c: 95 7f ac 01  slli	t#1, 26,	->t
   13e80: 7a 48        c.sdi	t#1, [sp, 72]
   13e82: 19 bf 90 00  ldi	[sp, 72],	->u
   13e86: 99 ef 60 01  lwui	[sp, 88],	->t
   13e8a: d7 1f 8e 01  divu	u#1, t#1,	->t
   13e8e: 7a 40        c.sdi	t#1, [sp, 64]
   13e90: 19 bf 90 00  ldi	[sp, 72],	->u
   13e94: 99 ef 60 01  lwui	[sp, 88],	->t
   13e98: 57 5f 8e 01  remu	u#1, t#1,	->u
   13e9c: 06 f8        c.movr	zero,	->t
   13e9e: 26 c7        c.setc.eq	u#1, t#1
   13ea0: 52 00        C.BSTART	DIRECT, 0x13eaa
   13ea2: 5a 40        c.ldi	[sp, 64],	->t
   13ea4: 95 3f 1c 00  ori	t#1, 1,	->t
   13ea8: 7a 40        c.sdi	t#1, [sp, 64]

0000000000013eaa <.LBB9_34>:
   13eaa: 12 00        C.BSTART	DIRECT, 0x13eac

0000000000013eac <.LBB9_35>:
   13eac: 44 01        C.BSTART	COND, 0x13ed4
   13eae: 19 bf 80 00  ldi	[sp, 64],	->u
   13eb2: fe 03 97 ff ff ff    hl.lui	67108863,	->t
   13eb8: 65 60 cc 07  setc.ltu	t#1, u#1
   13ebc: 82 ff        C.BSTART	DIRECT, 0x13eac
   13ebe: 5a 40        c.ldi	[sp, 64],	->t
   13ec0: 95 7f 1c 00  slli	t#1, 1,	->t
   13ec4: 7a 40        c.sdi	t#1, [sp, 64]
   13ec6: 19 af 50 01  lwi	[sp, 84],	->u
   13eca: d6 ff        c.movi	-1,	->t
   13ecc: a5 0f 8e 07  addw	u#1, t#1,	->t
   13ed0: 59 20 1c 2a  swi	t#1, [sp, 84]

0000000000013ed4 <.LBB9_37>:
   13ed4: 14 04        C.BSTART	COND, 0x13f56
   13ed6: 5a 40        c.ldi	[sp, 64],	->t
   13ed8: 95 5f 3c 00  srli	t#1, 3,	->t
   13edc: 6a 78        c.swi	t#1, [sp, 60]
   13ede: 5a 40        c.ldi	[sp, 64],	->t
   13ee0: 95 5f 2c 00  srli	t#1, 2,	->t
   13ee4: 95 2f 1c 00  andi	t#1, 1,	->t
   13ee8: 6a 70        c.swi	t#1, [sp, 56]
   13eea: 5a 40        c.ldi	[sp, 64],	->t
   13eec: 95 5f 1c 00  srli	t#1, 1,	->t
   13ef0: 95 2f 1c 00  andi	t#1, 1,	->t
   13ef4: 6a 68        c.swi	t#1, [sp, 52]
   13ef6: 5a 40        c.ldi	[sp, 64],	->t
   13ef8: 95 2f 1c 00  andi	t#1, 1,	->t
   13efc: 6a 60        c.swi	t#1, [sp, 48]
   13efe: 4a 70        c.lwi	[sp, 56],	->t
   13f00: 75 00 0c 00  setc.eqi	t#1, 0
   13f04: f4 00        C.BSTART	COND, 0x13f22
   13f06: 4a 68        c.lwi	[sp, 52],	->t
   13f08: 75 10 0c 00  setc.nei	t#1, 0
   13f0c: b4 00        C.BSTART	COND, 0x13f22
   13f0e: 4a 60        c.lwi	[sp, 48],	->t
   13f10: 75 10 0c 00  setc.nei	t#1, 0
   13f14: 14 02        C.BSTART	COND, 0x13f56
   13f16: 99 cf c0 03  lbui	[sp, 60],	->t
   13f1a: b5 2f 1c 00  andiw	t#1, 1,	->t
   13f1e: 75 00 0c 00  setc.eqi	t#1, 0

0000000000013f22 <.LBB9_41>:
   13f22: 94 01        C.BSTART	COND, 0x13f54
   13f24: 19 af f0 00  lwi	[sp, 60],	->u
   13f28: 56 f8        c.movi	1,	->t
   13f2a: a5 0f 8e 07  addw	u#1, t#1,	->t
   13f2e: 6a 78        c.swi	t#1, [sp, 60]
   13f30: 4a 78        c.lwi	[sp, 60],	->t
   13f32: 25 0f 0c 06  addw	t#1, zero,	->u
   13f36: 97 0f 00 01  lui	4096,	->t
   13f3a: 36 c7        c.setc.ne	u#1, t#1
   13f3c: c2 00        C.BSTART	DIRECT, 0x13f54
   13f3e: 4a 78        c.lwi	[sp, 60],	->t
   13f40: b5 5f 1c 00  srliw	t#1, 1,	->t
   13f44: 6a 78        c.swi	t#1, [sp, 60]
   13f46: 19 af 50 01  lwi	[sp, 84],	->u
   13f4a: 56 f8        c.movi	1,	->t
   13f4c: a5 0f 8e 07  addw	u#1, t#1,	->t
   13f50: 59 20 1c 2a  swi	t#1, [sp, 84]

0000000000013f54 <.LBB9_43>:
   13f54: 12 00        C.BSTART	DIRECT, 0x13f56

0000000000013f56 <.LBB9_44>:
   13f56: 64 01        C.BSTART	COND, 0x13f82
   13f58: 19 af 50 01  lwi	[sp, 84],	->u
   13f5c: b5 0f f0 07  addiw	zero, 127,	->t
   13f60: a5 0f 8e 07  addw	u#1, t#1,	->t
   13f64: 6a 58        c.swi	t#1, [sp, 44]
   13f66: 4a 58        c.lwi	[sp, 44],	->t
   13f68: 1c 56        c.sext.w	t#1,	->t
   13f6a: 95 01 f0 0f  addi	zero, 255,	->a1
   13f6e: 65 40 3c 06  setc.lt	t#1, a1
   13f72: 01 40 19 fe d6 50    BSTART.STD	CALL, 0x137d6, ra=.LBB9_54
   13f78: 19 a1 e0 01  lwi	[sp, 120],	->a0

0000000000013f7c <.LBB9_54>:
   13f7c: 12 03        C.BSTART	DIRECT, 0x13fde
   13f7e: 59 20 11 4a  swi	a0, [sp, 148]

0000000000013f82 <.LBB9_46>:
   13f82: 14 01        C.BSTART	COND, 0x13fa4
   13f84: 4a 58        c.lwi	[sp, 44],	->t
   13f86: a5 01 0c 06  addw	t#1, zero,	->a1
   13f8a: 06 f8        c.movr	zero,	->t
   13f8c: 65 40 3c 06  setc.lt	t#1, a1
   13f90: 01 40 0c fe 56 51    BSTART.STD	CALL, 0x137c0, ra=.LBB9_53
   13f96: 19 a1 e0 01  lwi	[sp, 120],	->a0
   13f9a: 35 71 f1 01  slliw	a0, 31,	->a0

0000000000013f9e <.LBB9_53>:
   13f9e: 02 02        C.BSTART	DIRECT, 0x13fde
   13fa0: 59 20 11 4a  swi	a0, [sp, 148]

0000000000013fa4 <.LBB9_48>:
   13fa4: 01 40 07 fe 16 56    BSTART.STD	CALL, 0x137c0, ra=.LBB9_52
   13faa: 19 a1 e0 01  lwi	[sp, 120],	->a0
   13fae: 35 71 f1 01  slliw	a0, 31,	->a0
   13fb2: 99 a1 b0 00  lwi	[sp, 44],	->a1
   13fb6: b5 f1 71 01  slliw	a1, 23,	->a1
   13fba: 25 31 31 06  orw	a0, a1,	->a0
   13fbe: 99 a1 f0 00  lwi	[sp, 60],	->a1
   13fc2: 7e 00 17 f2 ff ff    hl.lui	8388607,	->a2
   13fc8: a5 a1 41 06  andw	a1, a2,	->a1
   13fcc: 25 31 31 06  orw	a0, a1,	->a0
   13fd0: 59 20 11 14  swi	a0, [sp, 40]
   13fd4: 19 a1 a0 00  lwi	[sp, 40],	->a0

0000000000013fd8 <.LBB9_52>:
   13fd8: 32 00        C.BSTART	DIRECT, 0x13fde
   13fda: 59 20 11 4a  swi	a0, [sp, 148]

0000000000013fde <.LBB9_49>:
   13fde: 00 08        C.BSTART.STD
   13fe0: 19 e1 50 02  lwui	[sp, 148],	->a0
   13fe4: 41 30 a5 28  FRET.STK	[ra ~ ra], sp!, 160

0000000000013fe8 <f32_is_inf>:
   13fe8: 41 00 a5 08  FENTRY	[ra ~ ra], sp!, 32
   13fec: 94 01        C.BSTART	COND, 0x1401e
   13fee: 59 20 11 0a  swi	a0, [sp, 20]
   13ff2: 4a 28        c.lwi	[sp, 20],	->t
   13ff4: b5 5f 7c 01  srliw	t#1, 23,	->t
   13ff8: b5 2f fc 0f  andiw	t#1, 255,	->t
   13ffc: 06 f0        c.movr	zero,	->u
   13ffe: 1c 56        c.sext.w	t#1,	->t
   14000: 95 01 f0 0f  addi	zero, 255,	->a1
   14004: 36 1e        c.setc.ne	t#1, a1
   14006: 59 30 1e 02  sdi	u#1, [sp, 8]
   1400a: a2 00        C.BSTART	DIRECT, 0x1401e
   1400c: 4a 28        c.lwi	[sp, 20],	->t
   1400e: 7e 00 97 f1 ff ff    hl.lui	8388607,	->a1
   14014: a5 2f 3c 06  andw	t#1, a1,	->t
   14018: 1c 56        c.sext.w	t#1,	->t
   1401a: 2c 00        c.cmp.eqi	0,	->t
   1401c: 7a 08        c.sdi	t#1, [sp, 8]

000000000001401e <.LBB10_2>:
   1401e: 00 08        C.BSTART.STD
   14020: 5a 08        c.ldi	[sp, 8],	->t
   14022: 15 21 1c 00  andi	t#1, 1,	->a0
   14026: 41 30 a5 08  FRET.STK	[ra ~ ra], sp!, 32

000000000001402a <__cmpsf2>:
   1402a: 41 00 a5 10  FENTRY	[ra ~ ra], sp!, 64
   1402e: 01 40 c9 fd d6 53    BSTART.STD	CALL, 0x13752, ra=.LBB11_14
   14034: 59 20 11 18  swi	a0, [sp, 48]
   14038: 59 a0 11 16  swi	a1, [sp, 44]
   1403c: 19 a1 c0 00  lwi	[sp, 48],	->a0
   14040: 59 20 11 14  swi	a0, [sp, 40]
   14044: 19 a1 b0 00  lwi	[sp, 44],	->a0
   14048: 59 20 11 12  swi	a0, [sp, 36]
   1404c: 19 a1 a0 00  lwi	[sp, 40],	->a0

0000000000014050 <.LBB11_14>:
   14050: d4 00        C.BSTART	COND, 0x1406a
   14052: 9c 50        c.sext.w	a0,	->t
   14054: 06 18        c.movr	zero,	->a1
   14056: 36 1e        c.setc.ne	t#1, a1
   14058: 01 c0 be fd d6 50    BSTART.STD	CALL, 0x13752, ra=.LBB11_13
   1405e: 19 a1 90 00  lwi	[sp, 36],	->a0

0000000000014062 <.LBB11_13>:
   14062: 74 00        C.BSTART	COND, 0x14070
   14064: 9c 50        c.sext.w	a0,	->t
   14066: 06 18        c.movr	zero,	->a1
   14068: 26 1e        c.setc.eq	t#1, a1

000000000001406a <.LBB11_2>:
   1406a: 32 07        C.BSTART	DIRECT, 0x14150
   1406c: 56 f8        c.movi	1,	->t
   1406e: 6a 68        c.swi	t#1, [sp, 52]

0000000000014070 <.LBB11_3>:
   14070: a4 00        C.BSTART	COND, 0x14084
   14072: 4a 48        c.lwi	[sp, 36],	->t
   14074: a5 01 0c 06  addw	t#1, zero,	->a1
   14078: 4a 50        c.lwi	[sp, 40],	->t
   1407a: 1c 56        c.sext.w	t#1,	->t
   1407c: 36 1e        c.setc.ne	t#1, a1
   1407e: 92 06        C.BSTART	DIRECT, 0x14150
   14080: 06 f8        c.movr	zero,	->t
   14082: 6a 68        c.swi	t#1, [sp, 52]

0000000000014084 <.LBB11_5>:
   14084: 94 01        C.BSTART	COND, 0x140b6
   14086: 4a 50        c.lwi	[sp, 40],	->t
   14088: b5 5f fc 01  srliw	t#1, 31,	->t
   1408c: 6a 40        c.swi	t#1, [sp, 32]
   1408e: 4a 48        c.lwi	[sp, 36],	->t
   14090: b5 5f fc 01  srliw	t#1, 31,	->t
   14094: 6a 38        c.swi	t#1, [sp, 28]
   14096: 4a 38        c.lwi	[sp, 28],	->t
   14098: 25 0f 0c 06  addw	t#1, zero,	->u
   1409c: 4a 40        c.lwi	[sp, 32],	->t
   1409e: 1c 56        c.sext.w	t#1,	->t
   140a0: 26 e6        c.setc.eq	t#1, u#1
   140a2: 72 05        C.BSTART	DIRECT, 0x14150
   140a4: 4a 40        c.lwi	[sp, 32],	->t
   140a6: 1c 56        c.sext.w	t#1,	->t
   140a8: 55 1f 0c 00  cmp.nei	t#1, 0,	->u
   140ac: 56 f8        c.movi	1,	->t
   140ae: d6 1f        c.movi	-1,	->a1
   140b0: f7 0f 3c e6  csel	u#1, t#1, a1,	->t
   140b4: 6a 68        c.swi	t#1, [sp, 52]

00000000000140b6 <.LBB11_7>:
   140b6: 24 03        C.BSTART	COND, 0x1411a
   140b8: 4a 50        c.lwi	[sp, 40],	->t
   140ba: b5 5f 7c 01  srliw	t#1, 23,	->t
   140be: b5 2f fc 0f  andiw	t#1, 255,	->t
   140c2: 6a 30        c.swi	t#1, [sp, 24]
   140c4: 4a 48        c.lwi	[sp, 36],	->t
   140c6: b5 5f 7c 01  srliw	t#1, 23,	->t
   140ca: b5 2f fc 0f  andiw	t#1, 255,	->t
   140ce: 6a 28        c.swi	t#1, [sp, 20]
   140d0: 4a 50        c.lwi	[sp, 40],	->t
   140d2: 7e 00 17 ff ff ff    hl.lui	8388607,	->u
   140d8: a5 2f cc 07  andw	t#1, u#1,	->t
   140dc: 6a 20        c.swi	t#1, [sp, 16]
   140de: 4a 48        c.lwi	[sp, 36],	->t
   140e0: a5 2f cc 07  andw	t#1, u#1,	->t
   140e4: 6a 18        c.swi	t#1, [sp, 12]
   140e6: 4a 28        c.lwi	[sp, 20],	->t
   140e8: 25 0f 0c 06  addw	t#1, zero,	->u
   140ec: 4a 30        c.lwi	[sp, 24],	->t
   140ee: 1c 56        c.sext.w	t#1,	->t
   140f0: 26 e6        c.setc.eq	t#1, u#1
   140f2: f2 02        C.BSTART	DIRECT, 0x14150
   140f4: 19 af 80 00  lwi	[sp, 32],	->u
   140f8: 4a 28        c.lwi	[sp, 20],	->t
   140fa: 25 0f 0c 06  addw	t#1, zero,	->u
   140fe: 4a 30        c.lwi	[sp, 24],	->t
   14100: 1c 56        c.sext.w	t#1,	->t
   14102: c5 4f cc 07  cmp.lt	t#1, u#1,	->t
   14106: a5 cf 8e 07  xorw	u#2, t#1,	->t
   1410a: 1c 56        c.sext.w	t#1,	->t
   1410c: 55 1f 0c 00  cmp.nei	t#1, 0,	->u
   14110: 56 f8        c.movi	1,	->t
   14112: d6 1f        c.movi	-1,	->a1
   14114: f7 0f 3c e6  csel	u#1, t#1, a1,	->t
   14118: 6a 68        c.swi	t#1, [sp, 52]

000000000001411a <.LBB11_9>:
   1411a: b2 01        C.BSTART	DIRECT, 0x14150
   1411c: 19 af 80 00  lwi	[sp, 32],	->u
   14120: 15 0f 00 02  addi	zero, 32,	->u
   14124: 4a 18        c.lwi	[sp, 12],	->t
   14126: 85 7f cc 01  sll	t#1, u#1,	->t
   1412a: 05 5f cc 01  srl	t#1, u#1,	->u
   1412e: 4a 20        c.lwi	[sp, 16],	->t
   14130: 85 7f dc 01  sll	t#1, u#2,	->t
   14134: 85 5f dc 01  srl	t#1, u#2,	->t
   14138: c5 6f cc 07  cmp.ltu	t#1, u#1,	->t
   1413c: a5 4f 8f 07  xorw	u#3, t#1,	->t
   14140: 1c 56        c.sext.w	t#1,	->t
   14142: 55 1f 0c 00  cmp.nei	t#1, 0,	->u
   14146: 56 f8        c.movi	1,	->t
   14148: d6 1f        c.movi	-1,	->a1
   1414a: f7 0f 3c e6  csel	u#1, t#1, a1,	->t
   1414e: 6a 68        c.swi	t#1, [sp, 52]

0000000000014150 <.LBB11_10>:
   14150: 00 08        C.BSTART.STD
   14152: 19 a1 d0 00  lwi	[sp, 52],	->a0
   14156: 41 30 a5 10  FRET.STK	[ra ~ ra], sp!, 64

000000000001415a <__fixsfsi>:
   1415a: 41 00 a5 10  FENTRY	[ra ~ ra], sp!, 64
   1415e: a4 02        C.BSTART	COND, 0x141b2
   14160: 59 20 11 18  swi	a0, [sp, 48]
   14164: 4a 60        c.lwi	[sp, 48],	->t
   14166: 6a 58        c.swi	t#1, [sp, 44]
   14168: 4a 58        c.lwi	[sp, 44],	->t
   1416a: b5 5f fc 01  srliw	t#1, 31,	->t
   1416e: 6a 50        c.swi	t#1, [sp, 40]
   14170: 4a 58        c.lwi	[sp, 44],	->t
   14172: b5 5f 7c 01  srliw	t#1, 23,	->t
   14176: b5 2f fc 0f  andiw	t#1, 255,	->t
   1417a: 6a 48        c.swi	t#1, [sp, 36]
   1417c: 19 af b0 00  lwi	[sp, 44],	->u
   14180: 7e 00 97 ff ff ff    hl.lui	8388607,	->t
   14186: a5 2f 8e 07  andw	u#1, t#1,	->t
   1418a: 6a 40        c.swi	t#1, [sp, 32]
   1418c: 4a 48        c.lwi	[sp, 36],	->t
   1418e: 25 0f 0c 06  addw	t#1, zero,	->u
   14192: 95 0f f0 0f  addi	zero, 255,	->t
   14196: 36 c7        c.setc.ne	u#1, t#1
   14198: 52 07        C.BSTART	DIRECT, 0x14282
   1419a: 4a 50        c.lwi	[sp, 40],	->t
   1419c: 1c 56        c.sext.w	t#1,	->t
   1419e: 55 1f 0c 00  cmp.nei	t#1, 0,	->u
   141a2: fe 7f 97 ff ff ff    hl.lui	2147483647,	->t
   141a8: 97 01 00 80  lui	524288,	->a1
   141ac: f7 0f 3c e6  csel	u#1, t#1, a1,	->t
   141b0: 6a 68        c.swi	t#1, [sp, 52]

00000000000141b2 <.LBB12_2>:
   141b2: b4 00        C.BSTART	COND, 0x141c8
   141b4: 4a 48        c.lwi	[sp, 36],	->t
   141b6: a5 01 0c 06  addw	t#1, zero,	->a1
   141ba: 95 0f e0 07  addi	zero, 126,	->t
   141be: 65 40 3c 06  setc.lt	t#1, a1
   141c2: 02 06        C.BSTART	DIRECT, 0x14282
   141c4: 06 f8        c.movr	zero,	->t
   141c6: 6a 68        c.swi	t#1, [sp, 52]

00000000000141c8 <.LBB12_4>:
   141c8: 24 02        C.BSTART	COND, 0x1420c
   141ca: 19 af 90 00  lwi	[sp, 36],	->u
   141ce: b5 1f f0 07  subiw	zero, 127,	->t
   141d2: a5 0f 8e 07  addw	u#1, t#1,	->t
   141d6: 6a 38        c.swi	t#1, [sp, 28]
   141d8: 19 ef 80 00  lwui	[sp, 32],	->u
   141dc: 97 0f 80 00  lui	2048,	->t
   141e0: 38 c7        c.or	u#1, t#1,	->t
   141e2: 7a 10        c.sdi	t#1, [sp, 16]
   141e4: 4a 38        c.lwi	[sp, 28],	->t
   141e6: 25 0f 0c 06  addw	t#1, zero,	->u
   141ea: 95 0f f0 01  addi	zero, 31,	->t
   141ee: 65 40 8e 07  setc.lt	u#1, t#1
   141f2: 82 04        C.BSTART	DIRECT, 0x14282
   141f4: 4a 50        c.lwi	[sp, 40],	->t
   141f6: 1c 56        c.sext.w	t#1,	->t
   141f8: 55 1f 0c 00  cmp.nei	t#1, 0,	->u
   141fc: fe 7f 97 ff ff ff    hl.lui	2147483647,	->t
   14202: 97 01 00 80  lui	524288,	->a1
   14206: f7 0f 3c e6  csel	u#1, t#1, a1,	->t
   1420a: 6a 68        c.swi	t#1, [sp, 52]

000000000001420c <.LBB12_6>:
   1420c: a4 01        C.BSTART	COND, 0x14240
   1420e: 4a 38        c.lwi	[sp, 28],	->t
   14210: 25 0f 0c 06  addw	t#1, zero,	->u
   14214: 95 0f 60 01  addi	zero, 22,	->t
   14218: 65 40 cc 07  setc.lt	t#1, u#1
   1421c: 42 02        C.BSTART	DIRECT, 0x14264
   1421e: 19 bf 20 00  ldi	[sp, 16],	->u
   14222: 19 af 70 00  lwi	[sp, 28],	->u
   14226: b5 0f 70 01  addiw	zero, 23,	->t
   1422a: a5 1f cc 07  subw	t#1, u#1,	->t
   1422e: 15 0f 00 02  addi	zero, 32,	->u
   14232: 85 7f cc 01  sll	t#1, u#1,	->t
   14236: 85 5f cc 01  srl	t#1, u#1,	->t
   1423a: 85 5f 8f 01  srl	u#3, t#1,	->t
   1423e: 7a 08        c.sdi	t#1, [sp, 8]

0000000000014240 <.LBB12_8>:
   14240: 22 01        C.BSTART	DIRECT, 0x14264
   14242: 19 bf 20 00  ldi	[sp, 16],	->u
   14246: 19 af 70 00  lwi	[sp, 28],	->u
   1424a: b5 1f 70 01  subiw	zero, 23,	->t
   1424e: a5 0f 8e 07  addw	u#1, t#1,	->t
   14252: 15 0f 00 02  addi	zero, 32,	->u
   14256: 85 7f cc 01  sll	t#1, u#1,	->t
   1425a: 85 5f cc 01  srl	t#1, u#1,	->t
   1425e: 85 7f 8f 01  sll	u#3, t#1,	->t
   14262: 7a 08        c.sdi	t#1, [sp, 8]

0000000000014264 <.LBB12_9>:
   14264: c4 00        C.BSTART	COND, 0x1427c
   14266: 4a 50        c.lwi	[sp, 40],	->t
   14268: 1c 56        c.sext.w	t#1,	->t
   1426a: 06 18        c.movr	zero,	->a1
   1426c: 26 1e        c.setc.eq	t#1, a1
   1426e: a2 00        C.BSTART	DIRECT, 0x14282
   14270: 99 a1 20 00  lwi	[sp, 8],	->a1
   14274: 06 f8        c.movr	zero,	->t
   14276: a5 1f 3c 06  subw	t#1, a1,	->t
   1427a: 6a 68        c.swi	t#1, [sp, 52]

000000000001427c <.LBB12_11>:
   1427c: 32 00        C.BSTART	DIRECT, 0x14282
   1427e: 5a 08        c.ldi	[sp, 8],	->t
   14280: 6a 68        c.swi	t#1, [sp, 52]

0000000000014282 <.LBB12_12>:
   14282: 00 08        C.BSTART.STD
   14284: 19 a1 d0 00  lwi	[sp, 52],	->a0
   14288: 41 30 a5 10  FRET.STK	[ra ~ ra], sp!, 64

000000000001428c <__floatsisf>:
   1428c: 41 00 a5 0c  FENTRY	[ra ~ ra], sp!, 48
   14290: 34 01        C.BSTART	COND, 0x142b6
   14292: 59 20 11 10  swi	a0, [sp, 32]
   14296: 06 f8        c.movr	zero,	->t
   14298: 6a 38        c.swi	t#1, [sp, 28]
   1429a: 4a 40        c.lwi	[sp, 32],	->t
   1429c: 25 0f 0c 06  addw	t#1, zero,	->u
   142a0: d6 ff        c.movi	-1,	->t
   142a2: 65 40 cc 07  setc.lt	t#1, u#1
   142a6: b2 00        C.BSTART	DIRECT, 0x142bc
   142a8: 56 f8        c.movi	1,	->t
   142aa: 6a 38        c.swi	t#1, [sp, 28]
   142ac: 19 af 80 00  lwi	[sp, 32],	->u
   142b0: 06 f8        c.movr	zero,	->t
   142b2: 18 e6        c.sub	t#1, u#1,	->t
   142b4: 6a 30        c.swi	t#1, [sp, 24]

00000000000142b6 <.LBB13_2>:
   142b6: 32 00        C.BSTART	DIRECT, 0x142bc
   142b8: 4a 40        c.lwi	[sp, 32],	->t
   142ba: 6a 30        c.swi	t#1, [sp, 24]

00000000000142bc <.LBB13_3>:
   142bc: 84 00        C.BSTART	COND, 0x142cc
   142be: 4a 30        c.lwi	[sp, 24],	->t
   142c0: 1c 56        c.sext.w	t#1,	->t
   142c2: 06 18        c.movr	zero,	->a1
   142c4: 36 1e        c.setc.ne	t#1, a1
   142c6: b2 06        C.BSTART	DIRECT, 0x1439c
   142c8: 06 f8        c.movr	zero,	->t
   142ca: 6a 48        c.swi	t#1, [sp, 36]

00000000000142cc <.LBB13_5>:
   142cc: c4 01        C.BSTART	COND, 0x14304
   142ce: b5 0f f0 01  addiw	zero, 31,	->t
   142d2: 6a 28        c.swi	t#1, [sp, 20]
   142d4: 4a 30        c.lwi	[sp, 24],	->t
   142d6: 6a 20        c.swi	t#1, [sp, 16]
   142d8: 15 0f 00 02  addi	zero, 32,	->u
   142dc: 4a 20        c.lwi	[sp, 16],	->t
   142de: 85 7f cc 01  sll	t#1, u#1,	->t
   142e2: 05 5f cc 01  srl	t#1, u#1,	->u
   142e6: 97 0f 01 00  lui	16,	->t
   142ea: 65 60 8e 07  setc.ltu	u#1, t#1
   142ee: d2 03        C.BSTART	DIRECT, 0x14368
   142f0: b5 0f f0 02  addiw	zero, 47,	->t
   142f4: 6a 28        c.swi	t#1, [sp, 20]
   142f6: 95 8f 00 01  addi	sp, 16,	->t
   142fa: 95 3f 2c 00  ori	t#1, 2,	->t
   142fe: 99 5f 0c 00  lhui	[t#1, 0],	->t
   14302: 6a 20        c.swi	t#1, [sp, 16]

0000000000014304 <.LBB13_7>:
   14304: 44 01        C.BSTART	COND, 0x1432c
   14306: 15 0f 00 02  addi	zero, 32,	->u
   1430a: 4a 20        c.lwi	[sp, 16],	->t
   1430c: 85 7f cc 01  sll	t#1, u#1,	->t
   14310: 05 5f cc 01  srl	t#1, u#1,	->u
   14314: 95 0f 00 10  addi	zero, 256,	->t
   14318: 65 60 8e 07  setc.ltu	u#1, t#1
   1431c: 52 02        C.BSTART	DIRECT, 0x14366
   1431e: b5 0f 60 02  addiw	zero, 38,	->t
   14322: 6a 28        c.swi	t#1, [sp, 20]
   14324: 4a 20        c.lwi	[sp, 16],	->t
   14326: b5 5f 8c 00  srliw	t#1, 8,	->t
   1432a: 6a 20        c.swi	t#1, [sp, 16]

000000000001432c <.LBB13_9>:
   1432c: 42 00        C.BSTART	DIRECT, 0x14334
   1432e: b5 0f e0 01  addiw	zero, 30,	->t
   14332: 6a 28        c.swi	t#1, [sp, 20]

0000000000014334 <.LBB13_10>:
   14334: 84 01        C.BSTART	COND, 0x14364
   14336: 15 0f 00 02  addi	zero, 32,	->u
   1433a: 4a 20        c.lwi	[sp, 16],	->t
   1433c: 85 7f cc 01  sll	t#1, u#1,	->t
   14340: 05 5f cc 01  srl	t#1, u#1,	->u
   14344: 7e 00 97 ff ff ff    hl.lui	8388607,	->t
   1434a: 65 60 cc 07  setc.ltu	t#1, u#1
   1434e: 32 ff        C.BSTART	DIRECT, 0x14334
   14350: 4a 20        c.lwi	[sp, 16],	->t
   14352: b5 7f 1c 00  slliw	t#1, 1,	->t
   14356: 6a 20        c.swi	t#1, [sp, 16]
   14358: 19 af 50 00  lwi	[sp, 20],	->u
   1435c: d6 ff        c.movi	-1,	->t
   1435e: a5 0f 8e 07  addw	u#1, t#1,	->t
   14362: 6a 28        c.swi	t#1, [sp, 20]

0000000000014364 <.LBB13_12>:
   14364: 12 00        C.BSTART	DIRECT, 0x14366

0000000000014366 <.LBB13_13>:
   14366: 12 00        C.BSTART	DIRECT, 0x14368

0000000000014368 <.LBB13_14>:
   14368: a2 01        C.BSTART	DIRECT, 0x1439c
   1436a: 4a 38        c.lwi	[sp, 28],	->t
   1436c: 35 7f fc 01  slliw	t#1, 31,	->u
   14370: 4a 28        c.lwi	[sp, 20],	->t
   14372: 35 7f 7c 01  slliw	t#1, 23,	->u
   14376: 97 0f 80 3f  lui	260096,	->t
   1437a: a5 0f 8e 07  addw	u#1, t#1,	->t
   1437e: a5 bf 8e 07  orw	u#2, t#1,	->t
   14382: 19 af 40 00  lwi	[sp, 16],	->u
   14386: 7e 00 97 ff ff ff    hl.lui	8388607,	->t
   1438c: a5 21 8e 07  andw	u#1, t#1,	->a1
   14390: a5 bf 3c 06  orw	t#2, a1,	->t
   14394: 6a 18        c.swi	t#1, [sp, 12]
   14396: 99 ef 30 00  lwui	[sp, 12],	->t
   1439a: 6a 48        c.swi	t#1, [sp, 36]

000000000001439c <.LBB13_15>:
   1439c: 00 08        C.BSTART.STD
   1439e: 19 e1 90 00  lwui	[sp, 36],	->a0
   143a2: 41 30 a5 0c  FRET.STK	[ra ~ ra], sp!, 48

00000000000143a6 <__adddf3>:
   143a6: 41 00 a5 0c  FENTRY	[ra ~ ra], sp!, 48
   143aa: 0e 00 01 40 13 00 d6 51      HL.BSTART.STD	CALL, 0x143f6, ra=.LBB14_3
   143b2: 59 30 11 08  sdi	a0, [sp, 32]
   143b6: 59 b0 11 06  sdi	a1, [sp, 24]
   143ba: 19 b1 40 00  ldi	[sp, 32],	->a0

00000000000143be <.LBB14_3>:
   143be: 0e 00 01 40 0e 00 56 51      HL.BSTART.STD	CALL, 0x143f6, ra=.LBB14_4
   143c6: 59 20 11 0a  swi	a0, [sp, 20]
   143ca: 19 b1 30 00  ldi	[sp, 24],	->a0

00000000000143ce <.LBB14_4>:
   143ce: fe ff 01 c0 8e fb d6 51      HL.BSTART.STD	CALL, 0x13208, ra=.LBB14_5
   143d6: 59 20 11 08  swi	a0, [sp, 16]
   143da: 99 e1 40 00  lwui	[sp, 16],	->a1
   143de: 19 e1 50 00  lwui	[sp, 20],	->a0

00000000000143e2 <.LBB14_5>:
   143e2: 0e 00 01 40 7d 00 56 51      HL.BSTART.STD	CALL, 0x145d6, ra=.LBB14_2
   143ea: 59 20 11 06  swi	a0, [sp, 12]
   143ee: 19 e1 30 00  lwui	[sp, 12],	->a0

00000000000143f2 <.LBB14_2>:
   143f2: 41 30 a5 0c  FRET.STK	[ra ~ ra], sp!, 48

00000000000143f6 <__truncdfsf2>:
   143f6: 41 00 a5 18  FENTRY	[ra ~ ra], sp!, 96
   143fa: 01 40 2f 01 56 51    BSTART.STD	CALL, 0x148b6, ra=.LBB15_20
   14400: 59 30 11 12  sdi	a0, [sp, 72]
   14404: 19 b1 90 00  ldi	[sp, 72],	->a0

0000000000014408 <.LBB15_20>:
   14408: 04 06        C.BSTART	COND, 0x144c8
   1440a: 59 30 11 10  sdi	a0, [sp, 64]
   1440e: 19 bf 80 00  ldi	[sp, 64],	->u
   14412: 95 0f f0 03  addi	zero, 63,	->t
   14416: 85 5f 8e 01  srl	u#1, t#1,	->t
   1441a: 6a 78        c.swi	t#1, [sp, 60]
   1441c: 19 bf 80 00  ldi	[sp, 64],	->u
   14420: 95 0f 40 03  addi	zero, 52,	->t
   14424: 85 5f 8e 01  srl	u#1, t#1,	->t
   14428: 95 2f fc 7f  andi	t#1, 2047,	->t
   1442c: 6a 70        c.swi	t#1, [sp, 56]
   1442e: 19 bf 80 00  ldi	[sp, 64],	->u
   14432: 15 0f 00 02  addi	zero, 32,	->u
   14436: 0e 00 97 ff ff ff    hl.lui	1048575,	->t
   1443c: 05 7f cc 01  sll	t#1, u#1,	->u
   14440: fe ff 97 ff ff ff    hl.lui	4294967295,	->t
   14446: 85 7f dc 01  sll	t#1, u#2,	->t
   1444a: 85 5f dc 01  srl	t#1, u#2,	->t
   1444e: 38 c7        c.or	u#1, t#1,	->t
   14450: a8 c7        c.and	u#3, t#1,	->t
   14452: 7a 30        c.sdi	t#1, [sp, 48]
   14454: 4a 70        c.lwi	[sp, 56],	->t
   14456: 25 0f 0c 06  addw	t#1, zero,	->u
   1445a: 95 0f f0 7f  addi	zero, 2047,	->t
   1445e: 36 c7        c.setc.ne	u#1, t#1
   14460: 94 01        C.BSTART	COND, 0x14492
   14462: 5a 30        c.ldi	[sp, 48],	->t
   14464: 95 5f dc 01  srli	t#1, 29,	->t
   14468: 6a 58        c.swi	t#1, [sp, 44]
   1446a: 5a 30        c.ldi	[sp, 48],	->t
   1446c: 75 00 0c 00  setc.eqi	t#1, 0
   14470: 14 01        C.BSTART	COND, 0x14492
   14472: 19 af b0 00  lwi	[sp, 44],	->u
   14476: 7e 00 97 ff ff ff    hl.lui	8388607,	->t
   1447c: a5 2f 8e 07  andw	u#1, t#1,	->t
   14480: 25 0f 0c 06  addw	t#1, zero,	->u
   14484: 06 f8        c.movr	zero,	->t
   14486: 36 c7        c.setc.ne	u#1, t#1
   14488: 52 00        C.BSTART	DIRECT, 0x14492
   1448a: 4a 58        c.lwi	[sp, 44],	->t
   1448c: b5 3f 1c 00  oriw	t#1, 1,	->t
   14490: 6a 58        c.swi	t#1, [sp, 44]

0000000000014492 <.LBB15_4>:
   14492: 01 c0 cb fc 96 55    BSTART.STD	CALL, 0x137c0, ra=.LBB15_19
   14498: 19 a1 f0 00  lwi	[sp, 60],	->a0
   1449c: 35 71 f1 01  slliw	a0, 31,	->a0
   144a0: 99 a1 b0 00  lwi	[sp, 44],	->a1
   144a4: 7e 00 17 f2 ff ff    hl.lui	8388607,	->a2
   144aa: a5 a1 41 06  andw	a1, a2,	->a1
   144ae: 25 31 31 06  orw	a0, a1,	->a0
   144b2: 97 01 80 7f  lui	522240,	->a1
   144b6: 25 31 31 06  orw	a0, a1,	->a0
   144ba: 59 20 11 14  swi	a0, [sp, 40]
   144be: 19 a1 a0 00  lwi	[sp, 40],	->a0

00000000000144c2 <.LBB15_19>:
   144c2: 52 08        C.BSTART	DIRECT, 0x145cc
   144c4: 59 20 11 2a  swi	a0, [sp, 84]

00000000000144c8 <.LBB15_5>:
   144c8: f4 00        C.BSTART	COND, 0x144e6
   144ca: 4a 70        c.lwi	[sp, 56],	->t
   144cc: 1c 56        c.sext.w	t#1,	->t
   144ce: 06 18        c.movr	zero,	->a1
   144d0: 36 1e        c.setc.ne	t#1, a1
   144d2: 01 c0 bb fc 56 51    BSTART.STD	CALL, 0x137c0, ra=.LBB15_18
   144d8: 19 a1 f0 00  lwi	[sp, 60],	->a0
   144dc: 35 71 f1 01  slliw	a0, 31,	->a0

00000000000144e0 <.LBB15_18>:
   144e0: 62 07        C.BSTART	DIRECT, 0x145cc
   144e2: 59 20 11 2a  swi	a0, [sp, 84]

00000000000144e6 <.LBB15_7>:
   144e6: 84 02        C.BSTART	COND, 0x14536
   144e8: 19 af e0 00  lwi	[sp, 56],	->u
   144ec: b5 1f f0 3f  subiw	zero, 1023,	->t
   144f0: a5 0f 8e 07  addw	u#1, t#1,	->t
   144f4: 6a 48        c.swi	t#1, [sp, 36]
   144f6: 19 af 90 00  lwi	[sp, 36],	->u
   144fa: b5 0f f0 07  addiw	zero, 127,	->t
   144fe: a5 0f 8e 07  addw	u#1, t#1,	->t
   14502: 6a 40        c.swi	t#1, [sp, 32]
   14504: 4a 40        c.lwi	[sp, 32],	->t
   14506: 25 0f 0c 06  addw	t#1, zero,	->u
   1450a: 95 0f f0 0f  addi	zero, 255,	->t
   1450e: 65 40 8e 07  setc.lt	u#1, t#1
   14512: 01 c0 ab fc 56 53    BSTART.STD	CALL, 0x137c0, ra=.LBB15_17
   14518: 19 a1 f0 00  lwi	[sp, 60],	->a0
   1451c: 35 71 f1 01  slliw	a0, 31,	->a0
   14520: 97 01 80 7f  lui	522240,	->a1
   14524: 25 31 31 06  orw	a0, a1,	->a0
   14528: 59 20 11 0e  swi	a0, [sp, 28]
   1452c: 19 a1 70 00  lwi	[sp, 28],	->a0

0000000000014530 <.LBB15_17>:
   14530: e2 04        C.BSTART	DIRECT, 0x145cc
   14532: 59 20 11 2a  swi	a0, [sp, 84]

0000000000014536 <.LBB15_9>:
   14536: 14 01        C.BSTART	COND, 0x14558
   14538: 4a 40        c.lwi	[sp, 32],	->t
   1453a: a5 01 0c 06  addw	t#1, zero,	->a1
   1453e: 06 f8        c.movr	zero,	->t
   14540: 65 40 3c 06  setc.lt	t#1, a1
   14544: 01 40 9f fc 56 51    BSTART.STD	CALL, 0x137c0, ra=.LBB15_16
   1454a: 19 a1 f0 00  lwi	[sp, 60],	->a0
   1454e: 35 71 f1 01  slliw	a0, 31,	->a0

0000000000014552 <.LBB15_16>:
   14552: d2 03        C.BSTART	DIRECT, 0x145cc
   14554: 59 20 11 2a  swi	a0, [sp, 84]

0000000000014558 <.LBB15_11>:
   14558: 01 40 9a fc 07 55 03 00      BSTART.STD	CALL, 0x137c0, ra=.LBB15_15
   14560: 19 b1 60 00  ldi	[sp, 48],	->a0
   14564: 95 02 00 02  addi	zero, 32,	->a3
   14568: 1e 00 97 01 00 00    hl.lui	1048576,	->a1
   1456e: 85 f1 51 00  sll	a1, a3,	->a1
   14572: 0e 00 17 02 00 00    hl.lui	0,	->a2
   14578: 05 72 52 00  sll	a2, a3,	->a2
   1457c: 05 52 52 00  srl	a2, a3,	->a2
   14580: 85 b1 41 06  or	a1, a2,	->a1
   14584: 05 31 31 06  or	a0, a1,	->a0
   14588: 59 30 11 04  sdi	a0, [sp, 16]
   1458c: 19 b1 20 00  ldi	[sp, 16],	->a0
   14590: 15 51 d1 01  srli	a0, 29,	->a0
   14594: 59 20 11 06  swi	a0, [sp, 12]
   14598: 19 a1 f0 00  lwi	[sp, 60],	->a0
   1459c: 35 71 f1 01  slliw	a0, 31,	->a0
   145a0: 99 a1 80 00  lwi	[sp, 32],	->a1
   145a4: b5 f1 71 01  slliw	a1, 23,	->a1
   145a8: 25 31 31 06  orw	a0, a1,	->a0
   145ac: 99 a1 30 00  lwi	[sp, 12],	->a1
   145b0: 7e 00 17 f2 ff ff    hl.lui	8388607,	->a2
   145b6: a5 a1 41 06  andw	a1, a2,	->a1
   145ba: 25 31 31 06  orw	a0, a1,	->a0
   145be: 59 20 11 04  swi	a0, [sp, 8]
   145c2: 19 a1 20 00  lwi	[sp, 8],	->a0

00000000000145c6 <.LBB15_15>:
   145c6: 32 00        C.BSTART	DIRECT, 0x145cc
   145c8: 59 20 11 2a  swi	a0, [sp, 84]

00000000000145cc <.LBB15_12>:
   145cc: 00 08        C.BSTART.STD
   145ce: 19 e1 50 01  lwui	[sp, 84],	->a0
   145d2: 41 30 a5 18  FRET.STK	[ra ~ ra], sp!, 96

00000000000145d6 <__extendsfdf2>:
   145d6: 41 00 a5 18  FENTRY	[ra ~ ra], sp!, 96
   145da: 01 40 58 fc 56 51    BSTART.STD	CALL, 0x1373a, ra=.LBB16_22
   145e0: 59 20 11 26  swi	a0, [sp, 76]
   145e4: 19 e1 30 01  lwui	[sp, 76],	->a0

00000000000145e8 <.LBB16_22>:
   145e8: c4 06        C.BSTART	COND, 0x146c0
   145ea: 59 20 11 24  swi	a0, [sp, 72]
   145ee: 99 af 20 01  lwi	[sp, 72],	->t
   145f2: b5 5f fc 01  srliw	t#1, 31,	->t
   145f6: 59 20 1c 22  swi	t#1, [sp, 68]
   145fa: 99 af 20 01  lwi	[sp, 72],	->t
   145fe: b5 5f 7c 01  srliw	t#1, 23,	->t
   14602: b5 2f fc 0f  andiw	t#1, 255,	->t
   14606: 59 20 1c 20  swi	t#1, [sp, 64]
   1460a: 19 af 20 01  lwi	[sp, 72],	->u
   1460e: 7e 00 97 ff ff ff    hl.lui	8388607,	->t
   14614: a5 2f 8e 07  andw	u#1, t#1,	->t
   14618: 6a 78        c.swi	t#1, [sp, 60]
   1461a: 99 af 00 01  lwi	[sp, 64],	->t
   1461e: 25 0f 0c 06  addw	t#1, zero,	->u
   14622: 95 0f f0 0f  addi	zero, 255,	->t
   14626: 36 c7        c.setc.ne	u#1, t#1
   14628: a4 02        C.BSTART	COND, 0x1467c
   1462a: 19 af 10 01  lwi	[sp, 68],	->u
   1462e: 95 0f f0 03  addi	zero, 63,	->t
   14632: 05 7f 8e 01  sll	u#1, t#1,	->u
   14636: 99 ef f0 00  lwui	[sp, 60],	->t
   1463a: 95 7f dc 01  slli	t#1, 29,	->t
   1463e: 05 3f 8e 07  or	u#1, t#1,	->u
   14642: 15 0f 00 02  addi	zero, 32,	->u
   14646: fe 7f 97 0f 00 00    hl.lui	2146435072,	->t
   1464c: 05 7f cc 01  sll	t#1, u#1,	->u
   14650: 0e 00 97 0f 00 00    hl.lui	0,	->t
   14656: 85 7f dc 01  sll	t#1, u#2,	->t
   1465a: 85 5f dc 01  srl	t#1, u#2,	->t
   1465e: 38 c7        c.or	u#1, t#1,	->t
   14660: b8 c7        c.or	u#3, t#1,	->t
   14662: 7a 30        c.sdi	t#1, [sp, 48]
   14664: 4a 78        c.lwi	[sp, 60],	->t
   14666: 1c 56        c.sext.w	t#1,	->t
   14668: 06 18        c.movr	zero,	->a1
   1466a: 36 1e        c.setc.ne	t#1, a1
   1466c: 01 40 98 00 d6 50    BSTART.STD	CALL, 0x148cc, ra=.LBB16_21
   14672: 19 b1 60 00  ldi	[sp, 48],	->a0

0000000000014676 <.LBB16_21>:
   14676: 32 0a        C.BSTART	DIRECT, 0x147bc
   14678: 59 30 11 14  sdi	a0, [sp, 80]

000000000001467c <.LBB16_3>:
   1467c: a4 01        C.BSTART	COND, 0x146b0
   1467e: 19 bf 60 00  ldi	[sp, 48],	->u
   14682: 15 0f 00 02  addi	zero, 32,	->u
   14686: 0e 00 97 ff ff ff    hl.lui	1048575,	->t
   1468c: 05 7f cc 01  sll	t#1, u#1,	->u
   14690: fe ff 97 ff ff ff    hl.lui	4294967295,	->t
   14696: 85 7f dc 01  sll	t#1, u#2,	->t
   1469a: 85 5f dc 01  srl	t#1, u#2,	->t
   1469e: 38 c7        c.or	u#1, t#1,	->t
   146a0: a8 c7        c.and	u#3, t#1,	->t
   146a2: 06 18        c.movr	zero,	->a1
   146a4: 36 1e        c.setc.ne	t#1, a1
   146a6: 52 00        C.BSTART	DIRECT, 0x146b0
   146a8: 5a 30        c.ldi	[sp, 48],	->t
   146aa: 95 3f 1c 00  ori	t#1, 1,	->t
   146ae: 7a 30        c.sdi	t#1, [sp, 48]

00000000000146b0 <.LBB16_5>:
   146b0: 01 40 87 00 d6 50    BSTART.STD	CALL, 0x148cc, ra=.LBB16_20
   146b6: 19 b1 60 00  ldi	[sp, 48],	->a0

00000000000146ba <.LBB16_20>:
   146ba: 12 08        C.BSTART	DIRECT, 0x147bc
   146bc: 59 30 11 14  sdi	a0, [sp, 80]

00000000000146c0 <.LBB16_6>:
   146c0: 74 05        C.BSTART	COND, 0x1476e
   146c2: 99 af 00 01  lwi	[sp, 64],	->t
   146c6: 75 10 0c 00  setc.nei	t#1, 0
   146ca: 04 01        C.BSTART	COND, 0x146ea
   146cc: 4a 78        c.lwi	[sp, 60],	->t
   146ce: 75 10 0c 00  setc.nei	t#1, 0
   146d2: 01 c0 7e 00 d6 51    BSTART.STD	CALL, 0x148cc, ra=.LBB16_19
   146d8: 19 a1 10 01  lwi	[sp, 68],	->a0
   146dc: 95 01 f0 03  addi	zero, 63,	->a1
   146e0: 05 71 31 00  sll	a0, a1,	->a0

00000000000146e4 <.LBB16_19>:
   146e4: c2 06        C.BSTART	DIRECT, 0x147bc
   146e6: 59 30 11 14  sdi	a0, [sp, 80]

00000000000146ea <.LBB16_9>:
   146ea: 42 00        C.BSTART	DIRECT, 0x146f2
   146ec: b5 0f 10 38  addiw	zero, 897,	->t
   146f0: 6a 58        c.swi	t#1, [sp, 44]

00000000000146f2 <.LBB16_10>:
   146f2: 64 01        C.BSTART	COND, 0x1471e
   146f4: 95 8f c0 03  addi	sp, 60,	->t
   146f8: 95 3f 2c 00  ori	t#1, 2,	->t
   146fc: 99 4f 0c 00  lbui	[t#1, 0],	->t
   14700: b5 2f 0c 08  andiw	t#1, 128,	->t
   14704: 75 10 0c 00  setc.nei	t#1, 0
   14708: 52 ff        C.BSTART	DIRECT, 0x146f2
   1470a: 4a 78        c.lwi	[sp, 60],	->t
   1470c: b5 7f 1c 00  slliw	t#1, 1,	->t
   14710: 6a 78        c.swi	t#1, [sp, 60]
   14712: 19 af b0 00  lwi	[sp, 44],	->u
   14716: d6 ff        c.movi	-1,	->t
   14718: a5 0f 8e 07  addw	u#1, t#1,	->t
   1471c: 6a 58        c.swi	t#1, [sp, 44]

000000000001471e <.LBB16_12>:
   1471e: 01 c0 6b 00 07 35 02 00      BSTART.STD	CALL, 0x148cc, ra=.LBB16_18
   14726: 19 a1 f0 00  lwi	[sp, 60],	->a0
   1472a: 7e 00 97 f1 ff ff    hl.lui	8388607,	->a1
   14730: 25 21 31 06  andw	a0, a1,	->a0
   14734: 59 20 11 1e  swi	a0, [sp, 60]
   14738: 19 a1 10 01  lwi	[sp, 68],	->a0
   1473c: 95 01 f0 03  addi	zero, 63,	->a1
   14740: 05 71 31 00  sll	a0, a1,	->a0
   14744: 99 a1 b0 00  lwi	[sp, 44],	->a1
   14748: 15 02 40 03  addi	zero, 52,	->a2
   1474c: 85 f1 41 00  sll	a1, a2,	->a1
   14750: 05 31 31 06  or	a0, a1,	->a0
   14754: 99 e1 f0 00  lwui	[sp, 60],	->a1
   14758: 95 f1 d1 01  slli	a1, 29,	->a1
   1475c: 05 31 31 06  or	a0, a1,	->a0
   14760: 59 30 11 08  sdi	a0, [sp, 32]
   14764: 19 b1 40 00  ldi	[sp, 32],	->a0

0000000000014768 <.LBB16_18>:
   14768: a2 02        C.BSTART	DIRECT, 0x147bc
   1476a: 59 30 11 14  sdi	a0, [sp, 80]

000000000001476e <.LBB16_13>:
   1476e: 01 c0 57 00 07 25 02 00      BSTART.STD	CALL, 0x148cc, ra=.LBB16_17
   14776: 19 a1 00 01  lwi	[sp, 64],	->a0
   1477a: b5 01 00 38  addiw	zero, 896,	->a1
   1477e: 25 01 31 06  addw	a0, a1,	->a0
   14782: 59 20 11 0e  swi	a0, [sp, 28]
   14786: 19 a1 10 01  lwi	[sp, 68],	->a0
   1478a: 95 01 f0 03  addi	zero, 63,	->a1
   1478e: 05 71 31 00  sll	a0, a1,	->a0
   14792: 99 a1 70 00  lwi	[sp, 28],	->a1
   14796: 15 02 40 03  addi	zero, 52,	->a2
   1479a: 85 f1 41 00  sll	a1, a2,	->a1
   1479e: 05 31 31 06  or	a0, a1,	->a0
   147a2: 99 e1 f0 00  lwui	[sp, 60],	->a1
   147a6: 95 f1 d1 01  slli	a1, 29,	->a1
   147aa: 05 31 31 06  or	a0, a1,	->a0
   147ae: 59 30 11 04  sdi	a0, [sp, 16]
   147b2: 19 b1 20 00  ldi	[sp, 16],	->a0

00000000000147b6 <.LBB16_17>:
   147b6: 32 00        C.BSTART	DIRECT, 0x147bc
   147b8: 59 30 11 14  sdi	a0, [sp, 80]

00000000000147bc <.LBB16_14>:
   147bc: 00 08        C.BSTART.STD
   147be: 19 b1 a0 00  ldi	[sp, 80],	->a0
   147c2: 41 30 a5 18  FRET.STK	[ra ~ ra], sp!, 96

00000000000147c6 <__subdf3>:
   147c6: 41 00 a5 0c  FENTRY	[ra ~ ra], sp!, 48
   147ca: fe ff 01 40 0b ff d6 51      HL.BSTART.STD	CALL, 0x143f6, ra=.LBB17_3
   147d2: 59 30 11 08  sdi	a0, [sp, 32]
   147d6: 59 b0 11 06  sdi	a1, [sp, 24]
   147da: 19 b1 40 00  ldi	[sp, 32],	->a0

00000000000147de <.LBB17_3>:
   147de: fe ff 01 40 06 ff 56 51      HL.BSTART.STD	CALL, 0x143f6, ra=.LBB17_4
   147e6: 59 20 11 0a  swi	a0, [sp, 20]
   147ea: 19 b1 30 00  ldi	[sp, 24],	->a0

00000000000147ee <.LBB17_4>:
   147ee: fe ff 01 c0 02 fc d6 51      HL.BSTART.STD	CALL, 0x137f8, ra=.LBB17_5
   147f6: 59 20 11 08  swi	a0, [sp, 16]
   147fa: 99 e1 40 00  lwui	[sp, 16],	->a1
   147fe: 19 e1 50 00  lwui	[sp, 20],	->a0

0000000000014802 <.LBB17_5>:
   14802: fe ff 01 40 75 ff 56 51      HL.BSTART.STD	CALL, 0x145d6, ra=.LBB17_2
   1480a: 59 20 11 06  swi	a0, [sp, 12]
   1480e: 19 e1 30 00  lwui	[sp, 12],	->a0

0000000000014812 <.LBB17_2>:
   14812: 41 30 a5 0c  FRET.STK	[ra ~ ra], sp!, 48

0000000000014816 <__muldf3>:
   14816: 41 00 a5 0c  FENTRY	[ra ~ ra], sp!, 48
   1481a: fe ff 01 40 f7 fe d6 51      HL.BSTART.STD	CALL, 0x143f6, ra=.LBB18_3
   14822: 59 30 11 08  sdi	a0, [sp, 32]
   14826: 59 b0 11 06  sdi	a1, [sp, 24]
   1482a: 19 b1 40 00  ldi	[sp, 32],	->a0

000000000001482e <.LBB18_3>:
   1482e: fe ff 01 40 f2 fe 56 51      HL.BSTART.STD	CALL, 0x143f6, ra=.LBB18_4
   14836: 59 20 11 0a  swi	a0, [sp, 20]
   1483a: 19 b1 30 00  ldi	[sp, 24],	->a0

000000000001483e <.LBB18_4>:
   1483e: fe ff 01 40 02 fc d6 51      HL.BSTART.STD	CALL, 0x13846, ra=.LBB18_5
   14846: 59 20 11 08  swi	a0, [sp, 16]
   1484a: 99 e1 40 00  lwui	[sp, 16],	->a1
   1484e: 19 e1 50 00  lwui	[sp, 20],	->a0

0000000000014852 <.LBB18_5>:
   14852: fe ff 01 40 61 ff 56 51      HL.BSTART.STD	CALL, 0x145d6, ra=.LBB18_2
   1485a: 59 20 11 06  swi	a0, [sp, 12]
   1485e: 19 e1 30 00  lwui	[sp, 12],	->a0

0000000000014862 <.LBB18_2>:
   14862: 41 30 a5 0c  FRET.STK	[ra ~ ra], sp!, 48

0000000000014866 <__divdf3>:
   14866: 41 00 a5 0c  FENTRY	[ra ~ ra], sp!, 48
   1486a: fe ff 01 40 e3 fe d6 51      HL.BSTART.STD	CALL, 0x143f6, ra=.LBB19_3
   14872: 59 30 11 08  sdi	a0, [sp, 32]
   14876: 59 b0 11 06  sdi	a1, [sp, 24]
   1487a: 19 b1 40 00  ldi	[sp, 32],	->a0

000000000001487e <.LBB19_3>:
   1487e: fe ff 01 40 de fe 56 51      HL.BSTART.STD	CALL, 0x143f6, ra=.LBB19_4
   14886: 59 20 11 0a  swi	a0, [sp, 20]
   1488a: 19 b1 30 00  ldi	[sp, 24],	->a0

000000000001488e <.LBB19_4>:
   1488e: fe ff 01 c0 e1 fc d6 51      HL.BSTART.STD	CALL, 0x13c14, ra=.LBB19_5
   14896: 59 20 11 08  swi	a0, [sp, 16]
   1489a: 99 e1 40 00  lwui	[sp, 16],	->a1
   1489e: 19 e1 50 00  lwui	[sp, 20],	->a0

00000000000148a2 <.LBB19_5>:
   148a2: fe ff 01 40 4d ff 56 51      HL.BSTART.STD	CALL, 0x145d6, ra=.LBB19_2
   148aa: 59 20 11 06  swi	a0, [sp, 12]
   148ae: 19 e1 30 00  lwui	[sp, 12],	->a0

00000000000148b2 <.LBB19_2>:
   148b2: 41 30 a5 0c  FRET.STK	[ra ~ ra], sp!, 48

00000000000148b6 <f64_to_bits>:
   148b6: 41 00 a5 08  FENTRY	[ra ~ ra], sp!, 32
   148ba: 00 08        C.BSTART.STD
   148bc: 59 30 11 04  sdi	a0, [sp, 16]
   148c0: 5a 10        c.ldi	[sp, 16],	->t
   148c2: 7a 08        c.sdi	t#1, [sp, 8]
   148c4: 19 b1 10 00  ldi	[sp, 8],	->a0
   148c8: 41 30 a5 08  FRET.STK	[ra ~ ra], sp!, 32

00000000000148cc <f64_from_bits>:
   148cc: 41 00 a5 08  FENTRY	[ra ~ ra], sp!, 32
   148d0: 00 08        C.BSTART.STD
   148d2: 59 30 11 04  sdi	a0, [sp, 16]
   148d6: 5a 10        c.ldi	[sp, 16],	->t
   148d8: 7a 08        c.sdi	t#1, [sp, 8]
   148da: 19 b1 10 00  ldi	[sp, 8],	->a0
   148de: 41 30 a5 08  FRET.STK	[ra ~ ra], sp!, 32

00000000000148e2 <__ltdf2>:
   148e2: 41 00 a5 0c  FENTRY	[ra ~ ra], sp!, 48
   148e6: 01 40 f4 ff d6 51    BSTART.STD	CALL, 0x148b6, ra=.LBB22_3
   148ec: 59 30 11 08  sdi	a0, [sp, 32]
   148f0: 59 b0 11 06  sdi	a1, [sp, 24]
   148f4: 19 b1 40 00  ldi	[sp, 32],	->a0

00000000000148f8 <.LBB22_3>:
   148f8: 01 c0 ef ff 56 51    BSTART.STD	CALL, 0x148b6, ra=.LBB22_4
   148fe: 59 30 11 04  sdi	a0, [sp, 16]
   14902: 19 b1 30 00  ldi	[sp, 24],	->a0

0000000000014906 <.LBB22_4>:
   14906: 01 c0 04 00 56 51    BSTART.STD	CALL, 0x14918, ra=.LBB22_2
   1490c: 86 18        c.movr	a0,	->a1
   1490e: 19 b1 20 00  ldi	[sp, 16],	->a0
   14912: 56 20        c.movi	1,	->a2

0000000000014914 <.LBB22_2>:
   14914: 41 30 a5 0c  FRET.STK	[ra ~ ra], sp!, 48

0000000000014918 <f64_cmp>:
   14918: 41 00 a5 10  FENTRY	[ra ~ ra], sp!, 64
   1491c: 01 c0 97 00 56 52    BSTART.STD	CALL, 0x14b7a, ra=.LBB23_19
   14922: 59 30 11 0a  sdi	a0, [sp, 40]
   14926: 59 b0 11 08  sdi	a1, [sp, 32]
   1492a: 59 20 12 0e  swi	a2, [sp, 28]
   1492e: 19 b1 50 00  ldi	[sp, 40],	->a0

0000000000014932 <.LBB23_19>:
   14932: d4 00        C.BSTART	COND, 0x1494c
   14934: 9c 50        c.sext.w	a0,	->t
   14936: 06 18        c.movr	zero,	->a1
   14938: 36 1e        c.setc.ne	t#1, a1
   1493a: 01 40 90 00 d6 50    BSTART.STD	CALL, 0x14b7a, ra=.LBB23_18
   14940: 19 b1 40 00  ldi	[sp, 32],	->a0

0000000000014944 <.LBB23_18>:
   14944: 74 00        C.BSTART	COND, 0x14952
   14946: 9c 50        c.sext.w	a0,	->t
   14948: 06 18        c.movr	zero,	->a1
   1494a: 26 1e        c.setc.eq	t#1, a1

000000000001494c <.LBB23_2>:
   1494c: 42 05        C.BSTART	DIRECT, 0x149f4
   1494e: 4a 38        c.lwi	[sp, 28],	->t
   14950: 6a 68        c.swi	t#1, [sp, 52]

0000000000014952 <.LBB23_3>:
   14952: 01 40 f9 02 d6 50    BSTART.STD	CALL, 0x15536, ra=.LBB23_17
   14958: 19 b1 50 00  ldi	[sp, 40],	->a0

000000000001495c <.LBB23_17>:
   1495c: f4 00        C.BSTART	COND, 0x1497a
   1495e: 75 00 01 00  setc.eqi	a0, 0
   14962: 01 40 f5 02 d6 50    BSTART.STD	CALL, 0x15536, ra=.LBB23_16
   14968: 19 b1 40 00  ldi	[sp, 32],	->a0

000000000001496c <.LBB23_16>:
   1496c: 74 00        C.BSTART	COND, 0x1497a
   1496e: 9c 50        c.sext.w	a0,	->t
   14970: 06 18        c.movr	zero,	->a1
   14972: 26 1e        c.setc.eq	t#1, a1
   14974: 02 04        C.BSTART	DIRECT, 0x149f4
   14976: 06 f8        c.movr	zero,	->t
   14978: 6a 68        c.swi	t#1, [sp, 52]

000000000001497a <.LBB23_6>:
   1497a: 84 00        C.BSTART	COND, 0x1498a
   1497c: 5a 28        c.ldi	[sp, 40],	->t
   1497e: 99 b1 40 00  ldi	[sp, 32],	->a1
   14982: 36 1e        c.setc.ne	t#1, a1
   14984: 82 03        C.BSTART	DIRECT, 0x149f4
   14986: 06 f8        c.movr	zero,	->t
   14988: 6a 68        c.swi	t#1, [sp, 52]

000000000001498a <.LBB23_8>:
   1498a: b4 01        C.BSTART	COND, 0x149c0
   1498c: 5a 28        c.ldi	[sp, 40],	->t
   1498e: 15 0f f0 03  addi	zero, 63,	->u
   14992: 85 5f cc 01  srl	t#1, u#1,	->t
   14996: 6a 30        c.swi	t#1, [sp, 24]
   14998: 5a 20        c.ldi	[sp, 32],	->t
   1499a: 85 5f cc 01  srl	t#1, u#1,	->t
   1499e: 6a 28        c.swi	t#1, [sp, 20]
   149a0: 4a 28        c.lwi	[sp, 20],	->t
   149a2: 25 0f 0c 06  addw	t#1, zero,	->u
   149a6: 4a 30        c.lwi	[sp, 24],	->t
   149a8: 1c 56        c.sext.w	t#1,	->t
   149aa: 26 e6        c.setc.eq	t#1, u#1
   149ac: 42 02        C.BSTART	DIRECT, 0x149f4
   149ae: 4a 30        c.lwi	[sp, 24],	->t
   149b0: 1c 56        c.sext.w	t#1,	->t
   149b2: 55 1f 0c 00  cmp.nei	t#1, 0,	->u
   149b6: 56 f8        c.movi	1,	->t
   149b8: d6 1f        c.movi	-1,	->a1
   149ba: f7 0f 3c e6  csel	u#1, t#1, a1,	->t
   149be: 6a 68        c.swi	t#1, [sp, 52]

00000000000149c0 <.LBB23_10>:
   149c0: f4 00        C.BSTART	COND, 0x149de
   149c2: 4a 30        c.lwi	[sp, 24],	->t
   149c4: 75 10 0c 00  setc.nei	t#1, 0
   149c8: 62 01        C.BSTART	DIRECT, 0x149f4
   149ca: 19 bf 50 00  ldi	[sp, 40],	->u
   149ce: 5a 20        c.ldi	[sp, 32],	->t
   149d0: 45 6f 8e 07  cmp.ltu	u#1, t#1,	->u
   149d4: 56 f8        c.movi	1,	->t
   149d6: d6 1f        c.movi	-1,	->a1
   149d8: f7 0f 3c e6  csel	u#1, t#1, a1,	->t
   149dc: 6a 68        c.swi	t#1, [sp, 52]

00000000000149de <.LBB23_12>:
   149de: b2 00        C.BSTART	DIRECT, 0x149f4
   149e0: 19 bf 50 00  ldi	[sp, 40],	->u
   149e4: 5a 20        c.ldi	[sp, 32],	->t
   149e6: 45 6f cc 07  cmp.ltu	t#1, u#1,	->u
   149ea: 56 f8        c.movi	1,	->t
   149ec: d6 1f        c.movi	-1,	->a1
   149ee: f7 0f 3c e6  csel	u#1, t#1, a1,	->t
   149f2: 6a 68        c.swi	t#1, [sp, 52]

00000000000149f4 <.LBB23_13>:
   149f4: 00 08        C.BSTART.STD
   149f6: 19 a1 d0 00  lwi	[sp, 52],	->a0
   149fa: 41 30 a5 10  FRET.STK	[ra ~ ra], sp!, 64

00000000000149fe <__gtdf2>:
   149fe: 41 00 a5 0c  FENTRY	[ra ~ ra], sp!, 48
   14a02: 01 40 ad ff d6 51    BSTART.STD	CALL, 0x148b6, ra=.LBB24_3
   14a08: 59 30 11 08  sdi	a0, [sp, 32]
   14a0c: 59 b0 11 06  sdi	a1, [sp, 24]
   14a10: 19 b1 40 00  ldi	[sp, 32],	->a0

0000000000014a14 <.LBB24_3>:
   14a14: 01 c0 a8 ff 56 51    BSTART.STD	CALL, 0x148b6, ra=.LBB24_4
   14a1a: 59 30 11 04  sdi	a0, [sp, 16]
   14a1e: 19 b1 30 00  ldi	[sp, 24],	->a0

0000000000014a22 <.LBB24_4>:
   14a22: 01 c0 bd ff 56 52    BSTART.STD	CALL, 0x14918, ra=.LBB24_2
   14a28: 86 18        c.movr	a0,	->a1
   14a2a: 19 b1 20 00  ldi	[sp, 16],	->a0
   14a2e: fe ff 17 f2 ff ff    hl.lui	4294967295,	->a2
   14a34: 67 12 f2 01  bxu	a2, 31, 0,	->a2

0000000000014a38 <.LBB24_2>:
   14a38: 41 30 a5 0c  FRET.STK	[ra ~ ra], sp!, 48

0000000000014a3c <__ledf2>:
   14a3c: 41 00 a5 0c  FENTRY	[ra ~ ra], sp!, 48
   14a40: 01 c0 9d ff d6 51    BSTART.STD	CALL, 0x148b6, ra=.LBB25_3
   14a46: 59 30 11 08  sdi	a0, [sp, 32]
   14a4a: 59 b0 11 06  sdi	a1, [sp, 24]
   14a4e: 19 b1 40 00  ldi	[sp, 32],	->a0

0000000000014a52 <.LBB25_3>:
   14a52: 01 40 99 ff 56 51    BSTART.STD	CALL, 0x148b6, ra=.LBB25_4
   14a58: 59 30 11 04  sdi	a0, [sp, 16]
   14a5c: 19 b1 30 00  ldi	[sp, 24],	->a0

0000000000014a60 <.LBB25_4>:
   14a60: 01 40 ae ff 56 51    BSTART.STD	CALL, 0x14918, ra=.LBB25_2
   14a66: 86 18        c.movr	a0,	->a1
   14a68: 19 b1 20 00  ldi	[sp, 16],	->a0
   14a6c: 56 20        c.movi	1,	->a2

0000000000014a6e <.LBB25_2>:
   14a6e: 41 30 a5 0c  FRET.STK	[ra ~ ra], sp!, 48

0000000000014a72 <__gedf2>:
   14a72: 41 00 a5 0c  FENTRY	[ra ~ ra], sp!, 48
   14a76: 01 40 90 ff d6 51    BSTART.STD	CALL, 0x148b6, ra=.LBB26_3
   14a7c: 59 30 11 08  sdi	a0, [sp, 32]
   14a80: 59 b0 11 06  sdi	a1, [sp, 24]
   14a84: 19 b1 40 00  ldi	[sp, 32],	->a0

0000000000014a88 <.LBB26_3>:
   14a88: 01 c0 8b ff 56 51    BSTART.STD	CALL, 0x148b6, ra=.LBB26_4
   14a8e: 59 30 11 04  sdi	a0, [sp, 16]
   14a92: 19 b1 30 00  ldi	[sp, 24],	->a0

0000000000014a96 <.LBB26_4>:
   14a96: 01 c0 a0 ff 56 52    BSTART.STD	CALL, 0x14918, ra=.LBB26_2
   14a9c: 86 18        c.movr	a0,	->a1
   14a9e: 19 b1 20 00  ldi	[sp, 16],	->a0
   14aa2: fe ff 17 f2 ff ff    hl.lui	4294967295,	->a2
   14aa8: 67 12 f2 01  bxu	a2, 31, 0,	->a2

0000000000014aac <.LBB26_2>:
   14aac: 41 30 a5 0c  FRET.STK	[ra ~ ra], sp!, 48

0000000000014ab0 <__eqdf2>:
   14ab0: 41 00 a5 0c  FENTRY	[ra ~ ra], sp!, 48
   14ab4: 01 c0 80 ff d6 51    BSTART.STD	CALL, 0x148b6, ra=.LBB27_3
   14aba: 59 30 11 08  sdi	a0, [sp, 32]
   14abe: 59 b0 11 06  sdi	a1, [sp, 24]
   14ac2: 19 b1 40 00  ldi	[sp, 32],	->a0

0000000000014ac6 <.LBB27_3>:
   14ac6: 01 40 7c ff 56 51    BSTART.STD	CALL, 0x148b6, ra=.LBB27_4
   14acc: 59 30 11 04  sdi	a0, [sp, 16]
   14ad0: 19 b1 30 00  ldi	[sp, 24],	->a0

0000000000014ad4 <.LBB27_4>:
   14ad4: 01 40 91 ff 56 51    BSTART.STD	CALL, 0x14918, ra=.LBB27_2
   14ada: 86 18        c.movr	a0,	->a1
   14adc: 19 b1 20 00  ldi	[sp, 16],	->a0
   14ae0: 56 20        c.movi	1,	->a2

0000000000014ae2 <.LBB27_2>:
   14ae2: 41 30 a5 0c  FRET.STK	[ra ~ ra], sp!, 48

0000000000014ae6 <__nedf2>:
   14ae6: 41 00 a5 0c  FENTRY	[ra ~ ra], sp!, 48
   14aea: 01 40 73 ff d6 51    BSTART.STD	CALL, 0x148b6, ra=.LBB28_3
   14af0: 59 30 11 08  sdi	a0, [sp, 32]
   14af4: 59 b0 11 06  sdi	a1, [sp, 24]
   14af8: 19 b1 40 00  ldi	[sp, 32],	->a0

0000000000014afc <.LBB28_3>:
   14afc: 01 c0 6e ff 56 51    BSTART.STD	CALL, 0x148b6, ra=.LBB28_4
   14b02: 59 30 11 04  sdi	a0, [sp, 16]
   14b06: 19 b1 30 00  ldi	[sp, 24],	->a0

0000000000014b0a <.LBB28_4>:
   14b0a: 01 c0 83 ff 56 51    BSTART.STD	CALL, 0x14918, ra=.LBB28_2
   14b10: 86 18        c.movr	a0,	->a1
   14b12: 19 b1 20 00  ldi	[sp, 16],	->a0
   14b16: 56 20        c.movi	1,	->a2

0000000000014b18 <.LBB28_2>:
   14b18: 41 30 a5 0c  FRET.STK	[ra ~ ra], sp!, 48

0000000000014b1c <__unorddf2>:
   14b1c: 41 00 a5 10  FENTRY	[ra ~ ra], sp!, 64
   14b20: 01 c0 65 ff d6 51    BSTART.STD	CALL, 0x148b6, ra=.LBB29_6
   14b26: 59 30 11 0c  sdi	a0, [sp, 48]
   14b2a: 59 b0 11 0a  sdi	a1, [sp, 40]
   14b2e: 19 b1 60 00  ldi	[sp, 48],	->a0

0000000000014b32 <.LBB29_6>:
   14b32: 01 40 61 ff 56 51    BSTART.STD	CALL, 0x148b6, ra=.LBB29_7
   14b38: 59 30 11 08  sdi	a0, [sp, 32]
   14b3c: 19 b1 50 00  ldi	[sp, 40],	->a0

0000000000014b40 <.LBB29_7>:
   14b40: 01 c0 0e 00 56 51    BSTART.STD	CALL, 0x14b7a, ra=.LBB29_8
   14b46: 59 30 11 06  sdi	a0, [sp, 24]
   14b4a: 19 b1 40 00  ldi	[sp, 32],	->a0

0000000000014b4e <.LBB29_8>:
   14b4e: 04 01        C.BSTART	COND, 0x14b6e
   14b50: 56 f0        c.movi	1,	->u
   14b52: 9c 50        c.sext.w	a0,	->t
   14b54: 06 18        c.movr	zero,	->a1
   14b56: 36 1e        c.setc.ne	t#1, a1
   14b58: 59 30 1e 04  sdi	u#1, [sp, 16]
   14b5c: 01 c0 07 00 d6 50    BSTART.STD	CALL, 0x14b7a, ra=.LBB29_5
   14b62: 19 b1 30 00  ldi	[sp, 24],	->a0

0000000000014b66 <.LBB29_5>:
   14b66: 42 00        C.BSTART	DIRECT, 0x14b6e
   14b68: 9c 50        c.sext.w	a0,	->t
   14b6a: 2c 08        c.cmp.nei	0,	->t
   14b6c: 7a 10        c.sdi	t#1, [sp, 16]

0000000000014b6e <.LBB29_2>:
   14b6e: 00 08        C.BSTART.STD
   14b70: 5a 10        c.ldi	[sp, 16],	->t
   14b72: 15 21 1c 00  andi	t#1, 1,	->a0
   14b76: 41 30 a5 10  FRET.STK	[ra ~ ra], sp!, 64

0000000000014b7a <f64_is_nan>:
   14b7a: 41 00 a5 08  FENTRY	[ra ~ ra], sp!, 32
   14b7e: 64 02        C.BSTART	COND, 0x14bca
   14b80: 59 30 11 04  sdi	a0, [sp, 16]
   14b84: 19 bf 20 00  ldi	[sp, 16],	->u
   14b88: 95 0f 40 03  addi	zero, 52,	->t
   14b8c: 85 5f 8e 01  srl	u#1, t#1,	->t
   14b90: 15 2f fc 7f  andi	t#1, 2047,	->u
   14b94: 06 f8        c.movr	zero,	->t
   14b96: 95 01 f0 7f  addi	zero, 2047,	->a1
   14b9a: 36 1f        c.setc.ne	u#1, a1
   14b9c: 7a 08        c.sdi	t#1, [sp, 8]
   14b9e: 62 01        C.BSTART	DIRECT, 0x14bca
   14ba0: 19 bf 20 00  ldi	[sp, 16],	->u
   14ba4: 15 0f 00 02  addi	zero, 32,	->u
   14ba8: 0e 00 97 ff ff ff    hl.lui	1048575,	->t
   14bae: 05 7f cc 01  sll	t#1, u#1,	->u
   14bb2: fe ff 97 ff ff ff    hl.lui	4294967295,	->t
   14bb8: 85 7f dc 01  sll	t#1, u#2,	->t
   14bbc: 85 5f dc 01  srl	t#1, u#2,	->t
   14bc0: 85 31 8e 07  or	u#1, t#1,	->a1
   14bc4: a8 1f        c.and	u#3, a1,	->t
   14bc6: 2c 08        c.cmp.nei	0,	->t
   14bc8: 7a 08        c.sdi	t#1, [sp, 8]

0000000000014bca <.LBB30_2>:
   14bca: 00 08        C.BSTART.STD
   14bcc: 5a 08        c.ldi	[sp, 8],	->t
   14bce: 15 21 1c 00  andi	t#1, 1,	->a0
   14bd2: 41 30 a5 08  FRET.STK	[ra ~ ra], sp!, 32

0000000000014bd6 <__ltsf2>:
   14bd6: 41 00 a5 08  FENTRY	[ra ~ ra], sp!, 32
   14bda: 01 40 d8 fa d6 51    BSTART.STD	CALL, 0x1373a, ra=.LBB31_3
   14be0: 59 20 11 0a  swi	a0, [sp, 20]
   14be4: 59 a0 11 08  swi	a1, [sp, 16]
   14be8: 19 e1 50 00  lwui	[sp, 20],	->a0

0000000000014bec <.LBB31_3>:
   14bec: 01 c0 d3 fa 56 51    BSTART.STD	CALL, 0x1373a, ra=.LBB31_4
   14bf2: 59 30 11 02  sdi	a0, [sp, 8]
   14bf6: 19 e1 40 00  lwui	[sp, 16],	->a0

0000000000014bfa <.LBB31_4>:
   14bfa: 01 c0 04 00 56 51    BSTART.STD	CALL, 0x14c0c, ra=.LBB31_2
   14c00: 86 18        c.movr	a0,	->a1
   14c02: 19 b1 10 00  ldi	[sp, 8],	->a0
   14c06: 56 20        c.movi	1,	->a2

0000000000014c08 <.LBB31_2>:
   14c08: 41 30 a5 08  FRET.STK	[ra ~ ra], sp!, 32

0000000000014c0c <f32_cmp>:
   14c0c: 41 00 a5 0c  FENTRY	[ra ~ ra], sp!, 48
   14c10: 01 c0 d0 fa 56 52    BSTART.STD	CALL, 0x13752, ra=.LBB32_19
   14c16: 59 20 11 10  swi	a0, [sp, 32]
   14c1a: 59 a0 11 0e  swi	a1, [sp, 28]
   14c1e: 59 20 12 0c  swi	a2, [sp, 24]
   14c22: 19 a1 80 00  lwi	[sp, 32],	->a0

0000000000014c26 <.LBB32_19>:
   14c26: d4 00        C.BSTART	COND, 0x14c40
   14c28: 9c 50        c.sext.w	a0,	->t
   14c2a: 06 18        c.movr	zero,	->a1
   14c2c: 36 1e        c.setc.ne	t#1, a1
   14c2e: 01 40 c9 fa d6 50    BSTART.STD	CALL, 0x13752, ra=.LBB32_18
   14c34: 19 a1 70 00  lwi	[sp, 28],	->a0

0000000000014c38 <.LBB32_18>:
   14c38: 74 00        C.BSTART	COND, 0x14c46
   14c3a: 9c 50        c.sext.w	a0,	->t
   14c3c: 06 18        c.movr	zero,	->a1
   14c3e: 26 1e        c.setc.eq	t#1, a1

0000000000014c40 <.LBB32_2>:
   14c40: 62 06        C.BSTART	DIRECT, 0x14d0c
   14c42: 4a 30        c.lwi	[sp, 24],	->t
   14c44: 6a 48        c.swi	t#1, [sp, 36]

0000000000014c46 <.LBB32_3>:
   14c46: 01 40 d6 fa d6 50    BSTART.STD	CALL, 0x1379e, ra=.LBB32_17
   14c4c: 19 a1 80 00  lwi	[sp, 32],	->a0

0000000000014c50 <.LBB32_17>:
   14c50: f4 00        C.BSTART	COND, 0x14c6e
   14c52: 75 00 01 00  setc.eqi	a0, 0
   14c56: 01 40 d2 fa d6 50    BSTART.STD	CALL, 0x1379e, ra=.LBB32_16
   14c5c: 19 a1 70 00  lwi	[sp, 28],	->a0

0000000000014c60 <.LBB32_16>:
   14c60: 74 00        C.BSTART	COND, 0x14c6e
   14c62: 9c 50        c.sext.w	a0,	->t
   14c64: 06 18        c.movr	zero,	->a1
   14c66: 26 1e        c.setc.eq	t#1, a1
   14c68: 22 05        C.BSTART	DIRECT, 0x14d0c
   14c6a: 06 f8        c.movr	zero,	->t
   14c6c: 6a 48        c.swi	t#1, [sp, 36]

0000000000014c6e <.LBB32_6>:
   14c6e: a4 00        C.BSTART	COND, 0x14c82
   14c70: 4a 38        c.lwi	[sp, 28],	->t
   14c72: a5 01 0c 06  addw	t#1, zero,	->a1
   14c76: 4a 40        c.lwi	[sp, 32],	->t
   14c78: 1c 56        c.sext.w	t#1,	->t
   14c7a: 36 1e        c.setc.ne	t#1, a1
   14c7c: 82 04        C.BSTART	DIRECT, 0x14d0c
   14c7e: 06 f8        c.movr	zero,	->t
   14c80: 6a 48        c.swi	t#1, [sp, 36]

0000000000014c82 <.LBB32_8>:
   14c82: 94 01        C.BSTART	COND, 0x14cb4
   14c84: 4a 40        c.lwi	[sp, 32],	->t
   14c86: b5 5f fc 01  srliw	t#1, 31,	->t
   14c8a: 6a 28        c.swi	t#1, [sp, 20]
   14c8c: 4a 38        c.lwi	[sp, 28],	->t
   14c8e: b5 5f fc 01  srliw	t#1, 31,	->t
   14c92: 6a 20        c.swi	t#1, [sp, 16]
   14c94: 4a 20        c.lwi	[sp, 16],	->t
   14c96: 25 0f 0c 06  addw	t#1, zero,	->u
   14c9a: 4a 28        c.lwi	[sp, 20],	->t
   14c9c: 1c 56        c.sext.w	t#1,	->t
   14c9e: 26 e6        c.setc.eq	t#1, u#1
   14ca0: 62 03        C.BSTART	DIRECT, 0x14d0c
   14ca2: 4a 28        c.lwi	[sp, 20],	->t
   14ca4: 1c 56        c.sext.w	t#1,	->t
   14ca6: 55 1f 0c 00  cmp.nei	t#1, 0,	->u
   14caa: 56 f8        c.movi	1,	->t
   14cac: d6 1f        c.movi	-1,	->a1
   14cae: f7 0f 3c e6  csel	u#1, t#1, a1,	->t
   14cb2: 6a 48        c.swi	t#1, [sp, 36]

0000000000014cb4 <.LBB32_10>:
   14cb4: 84 01        C.BSTART	COND, 0x14ce4
   14cb6: 4a 28        c.lwi	[sp, 20],	->t
   14cb8: 75 10 0c 00  setc.nei	t#1, 0
   14cbc: 82 02        C.BSTART	DIRECT, 0x14d0c
   14cbe: 15 0f 00 02  addi	zero, 32,	->u
   14cc2: 4a 38        c.lwi	[sp, 28],	->t
   14cc4: 85 7f cc 01  sll	t#1, u#1,	->t
   14cc8: 05 5f cc 01  srl	t#1, u#1,	->u
   14ccc: 4a 40        c.lwi	[sp, 32],	->t
   14cce: 85 7f dc 01  sll	t#1, u#2,	->t
   14cd2: 85 5f dc 01  srl	t#1, u#2,	->t
   14cd6: 45 6f cc 07  cmp.ltu	t#1, u#1,	->u
   14cda: 56 f8        c.movi	1,	->t
   14cdc: d6 1f        c.movi	-1,	->a1
   14cde: f7 0f 3c e6  csel	u#1, t#1, a1,	->t
   14ce2: 6a 48        c.swi	t#1, [sp, 36]

0000000000014ce4 <.LBB32_12>:
   14ce4: 42 01        C.BSTART	DIRECT, 0x14d0c
   14ce6: 15 0f 00 02  addi	zero, 32,	->u
   14cea: 4a 40        c.lwi	[sp, 32],	->t
   14cec: 85 7f cc 01  sll	t#1, u#1,	->t
   14cf0: 05 5f cc 01  srl	t#1, u#1,	->u
   14cf4: 4a 38        c.lwi	[sp, 28],	->t
   14cf6: 85 7f dc 01  sll	t#1, u#2,	->t
   14cfa: 85 5f dc 01  srl	t#1, u#2,	->t
   14cfe: 45 6f cc 07  cmp.ltu	t#1, u#1,	->u
   14d02: 56 f8        c.movi	1,	->t
   14d04: d6 1f        c.movi	-1,	->a1
   14d06: f7 0f 3c e6  csel	u#1, t#1, a1,	->t
   14d0a: 6a 48        c.swi	t#1, [sp, 36]

0000000000014d0c <.LBB32_13>:
   14d0c: 00 08        C.BSTART.STD
   14d0e: 19 a1 90 00  lwi	[sp, 36],	->a0
   14d12: 41 30 a5 0c  FRET.STK	[ra ~ ra], sp!, 48

0000000000014d16 <__gtsf2>:
   14d16: 41 00 a5 08  FENTRY	[ra ~ ra], sp!, 32
   14d1a: 01 40 88 fa d6 51    BSTART.STD	CALL, 0x1373a, ra=.LBB33_3
   14d20: 59 20 11 0a  swi	a0, [sp, 20]
   14d24: 59 a0 11 08  swi	a1, [sp, 16]
   14d28: 19 e1 50 00  lwui	[sp, 20],	->a0

0000000000014d2c <.LBB33_3>:
   14d2c: 01 c0 83 fa 56 51    BSTART.STD	CALL, 0x1373a, ra=.LBB33_4
   14d32: 59 30 11 02  sdi	a0, [sp, 8]
   14d36: 19 e1 40 00  lwui	[sp, 16],	->a0

0000000000014d3a <.LBB33_4>:
   14d3a: 01 c0 b4 ff 56 52    BSTART.STD	CALL, 0x14c0c, ra=.LBB33_2
   14d40: 86 18        c.movr	a0,	->a1
   14d42: 19 b1 10 00  ldi	[sp, 8],	->a0
   14d46: fe ff 17 f2 ff ff    hl.lui	4294967295,	->a2
   14d4c: 67 12 f2 01  bxu	a2, 31, 0,	->a2

0000000000014d50 <.LBB33_2>:
   14d50: 41 30 a5 08  FRET.STK	[ra ~ ra], sp!, 32

0000000000014d54 <__lesf2>:
   14d54: 41 00 a5 08  FENTRY	[ra ~ ra], sp!, 32
   14d58: 01 c0 78 fa d6 51    BSTART.STD	CALL, 0x1373a, ra=.LBB34_3
   14d5e: 59 20 11 0a  swi	a0, [sp, 20]
   14d62: 59 a0 11 08  swi	a1, [sp, 16]
   14d66: 19 e1 50 00  lwui	[sp, 20],	->a0

0000000000014d6a <.LBB34_3>:
   14d6a: 01 40 74 fa 56 51    BSTART.STD	CALL, 0x1373a, ra=.LBB34_4
   14d70: 59 30 11 02  sdi	a0, [sp, 8]
   14d74: 19 e1 40 00  lwui	[sp, 16],	->a0

0000000000014d78 <.LBB34_4>:
   14d78: 01 40 a5 ff 56 51    BSTART.STD	CALL, 0x14c0c, ra=.LBB34_2
   14d7e: 86 18        c.movr	a0,	->a1
   14d80: 19 b1 10 00  ldi	[sp, 8],	->a0
   14d84: 56 20        c.movi	1,	->a2

0000000000014d86 <.LBB34_2>:
   14d86: 41 30 a5 08  FRET.STK	[ra ~ ra], sp!, 32

0000000000014d8a <__gesf2>:
   14d8a: 41 00 a5 08  FENTRY	[ra ~ ra], sp!, 32
   14d8e: 01 40 6b fa d6 51    BSTART.STD	CALL, 0x1373a, ra=.LBB35_3
   14d94: 59 20 11 0a  swi	a0, [sp, 20]
   14d98: 59 a0 11 08  swi	a1, [sp, 16]
   14d9c: 19 e1 50 00  lwui	[sp, 20],	->a0

0000000000014da0 <.LBB35_3>:
   14da0: 01 c0 66 fa 56 51    BSTART.STD	CALL, 0x1373a, ra=.LBB35_4
   14da6: 59 30 11 02  sdi	a0, [sp, 8]
   14daa: 19 e1 40 00  lwui	[sp, 16],	->a0

0000000000014dae <.LBB35_4>:
   14dae: 01 c0 97 ff 56 52    BSTART.STD	CALL, 0x14c0c, ra=.LBB35_2
   14db4: 86 18        c.movr	a0,	->a1
   14db6: 19 b1 10 00  ldi	[sp, 8],	->a0
   14dba: fe ff 17 f2 ff ff    hl.lui	4294967295,	->a2
   14dc0: 67 12 f2 01  bxu	a2, 31, 0,	->a2

0000000000014dc4 <.LBB35_2>:
   14dc4: 41 30 a5 08  FRET.STK	[ra ~ ra], sp!, 32

0000000000014dc8 <__eqsf2>:
   14dc8: 41 00 a5 08  FENTRY	[ra ~ ra], sp!, 32
   14dcc: 01 c0 5b fa d6 51    BSTART.STD	CALL, 0x1373a, ra=.LBB36_3
   14dd2: 59 20 11 0a  swi	a0, [sp, 20]
   14dd6: 59 a0 11 08  swi	a1, [sp, 16]
   14dda: 19 e1 50 00  lwui	[sp, 20],	->a0

0000000000014dde <.LBB36_3>:
   14dde: 01 40 57 fa 56 51    BSTART.STD	CALL, 0x1373a, ra=.LBB36_4
   14de4: 59 30 11 02  sdi	a0, [sp, 8]
   14de8: 19 e1 40 00  lwui	[sp, 16],	->a0

0000000000014dec <.LBB36_4>:
   14dec: 01 40 88 ff 56 51    BSTART.STD	CALL, 0x14c0c, ra=.LBB36_2
   14df2: 86 18        c.movr	a0,	->a1
   14df4: 19 b1 10 00  ldi	[sp, 8],	->a0
   14df8: 56 20        c.movi	1,	->a2

0000000000014dfa <.LBB36_2>:
   14dfa: 41 30 a5 08  FRET.STK	[ra ~ ra], sp!, 32

0000000000014dfe <__nesf2>:
   14dfe: 41 00 a5 08  FENTRY	[ra ~ ra], sp!, 32
   14e02: 01 40 4e fa d6 51    BSTART.STD	CALL, 0x1373a, ra=.LBB37_3
   14e08: 59 20 11 0a  swi	a0, [sp, 20]
   14e0c: 59 a0 11 08  swi	a1, [sp, 16]
   14e10: 19 e1 50 00  lwui	[sp, 20],	->a0

0000000000014e14 <.LBB37_3>:
   14e14: 01 c0 49 fa 56 51    BSTART.STD	CALL, 0x1373a, ra=.LBB37_4
   14e1a: 59 30 11 02  sdi	a0, [sp, 8]
   14e1e: 19 e1 40 00  lwui	[sp, 16],	->a0

0000000000014e22 <.LBB37_4>:
   14e22: 01 c0 7a ff 56 51    BSTART.STD	CALL, 0x14c0c, ra=.LBB37_2
   14e28: 86 18        c.movr	a0,	->a1
   14e2a: 19 b1 10 00  ldi	[sp, 8],	->a0
   14e2e: 56 20        c.movi	1,	->a2

0000000000014e30 <.LBB37_2>:
   14e30: 41 30 a5 08  FRET.STK	[ra ~ ra], sp!, 32

0000000000014e34 <__unordsf2>:
   14e34: 41 00 a5 0c  FENTRY	[ra ~ ra], sp!, 48
   14e38: 01 c0 40 fa d6 51    BSTART.STD	CALL, 0x1373a, ra=.LBB38_6
   14e3e: 59 20 11 12  swi	a0, [sp, 36]
   14e42: 59 a0 11 10  swi	a1, [sp, 32]
   14e46: 19 e1 90 00  lwui	[sp, 36],	->a0

0000000000014e4a <.LBB38_6>:
   14e4a: 01 40 3c fa 56 51    BSTART.STD	CALL, 0x1373a, ra=.LBB38_7
   14e50: 59 20 11 0e  swi	a0, [sp, 28]
   14e54: 19 e1 80 00  lwui	[sp, 32],	->a0

0000000000014e58 <.LBB38_7>:
   14e58: 01 c0 3e fa 56 51    BSTART.STD	CALL, 0x13752, ra=.LBB38_8
   14e5e: 59 20 11 0c  swi	a0, [sp, 24]
   14e62: 19 a1 70 00  lwi	[sp, 28],	->a0

0000000000014e66 <.LBB38_8>:
   14e66: 04 01        C.BSTART	COND, 0x14e86
   14e68: 56 f0        c.movi	1,	->u
   14e6a: 9c 50        c.sext.w	a0,	->t
   14e6c: 06 18        c.movr	zero,	->a1
   14e6e: 36 1e        c.setc.ne	t#1, a1
   14e70: 59 30 1e 04  sdi	u#1, [sp, 16]
   14e74: 01 c0 37 fa d6 50    BSTART.STD	CALL, 0x13752, ra=.LBB38_5
   14e7a: 19 a1 60 00  lwi	[sp, 24],	->a0

0000000000014e7e <.LBB38_5>:
   14e7e: 42 00        C.BSTART	DIRECT, 0x14e86
   14e80: 9c 50        c.sext.w	a0,	->t
   14e82: 2c 08        c.cmp.nei	0,	->t
   14e84: 7a 10        c.sdi	t#1, [sp, 16]

0000000000014e86 <.LBB38_2>:
   14e86: 00 08        C.BSTART.STD
   14e88: 5a 10        c.ldi	[sp, 16],	->t
   14e8a: 15 21 1c 00  andi	t#1, 1,	->a0
   14e8e: 41 30 a5 0c  FRET.STK	[ra ~ ra], sp!, 48

0000000000014e92 <__fixunsdfdi>:
   14e92: 41 00 a5 14  FENTRY	[ra ~ ra], sp!, 80
   14e96: 01 40 88 fe 56 51    BSTART.STD	CALL, 0x148b6, ra=.LBB39_16
   14e9c: 59 30 11 0e  sdi	a0, [sp, 56]
   14ea0: 19 b1 70 00  ldi	[sp, 56],	->a0

0000000000014ea4 <.LBB39_16>:
   14ea4: d4 02        C.BSTART	COND, 0x14efe
   14ea6: 59 30 11 0c  sdi	a0, [sp, 48]
   14eaa: 19 bf 60 00  ldi	[sp, 48],	->u
   14eae: 95 0f f0 03  addi	zero, 63,	->t
   14eb2: 85 5f 8e 01  srl	u#1, t#1,	->t
   14eb6: 6a 58        c.swi	t#1, [sp, 44]
   14eb8: 19 bf 60 00  ldi	[sp, 48],	->u
   14ebc: 95 0f 40 03  addi	zero, 52,	->t
   14ec0: 85 5f 8e 01  srl	u#1, t#1,	->t
   14ec4: 95 2f fc 7f  andi	t#1, 2047,	->t
   14ec8: 6a 50        c.swi	t#1, [sp, 40]
   14eca: 19 bf 60 00  ldi	[sp, 48],	->u
   14ece: 15 0f 00 02  addi	zero, 32,	->u
   14ed2: 0e 00 97 ff ff ff    hl.lui	1048575,	->t
   14ed8: 05 7f cc 01  sll	t#1, u#1,	->u
   14edc: fe ff 97 ff ff ff    hl.lui	4294967295,	->t
   14ee2: 85 7f dc 01  sll	t#1, u#2,	->t
   14ee6: 85 5f dc 01  srl	t#1, u#2,	->t
   14eea: 38 c7        c.or	u#1, t#1,	->t
   14eec: a8 c7        c.and	u#3, t#1,	->t
   14eee: 7a 20        c.sdi	t#1, [sp, 32]
   14ef0: 4a 58        c.lwi	[sp, 44],	->t
   14ef2: 1c 56        c.sext.w	t#1,	->t
   14ef4: 06 18        c.movr	zero,	->a1
   14ef6: 26 1e        c.setc.eq	t#1, a1
   14ef8: 02 07        C.BSTART	DIRECT, 0x14fd8
   14efa: 06 f8        c.movr	zero,	->t
   14efc: 7a 40        c.sdi	t#1, [sp, 64]

0000000000014efe <.LBB39_2>:
   14efe: d4 00        C.BSTART	COND, 0x14f18
   14f00: 4a 50        c.lwi	[sp, 40],	->t
   14f02: 75 10 fc 7f  setc.nei	t#1, 2047
   14f06: 92 06        C.BSTART	DIRECT, 0x14fd8
   14f08: 5a 20        c.ldi	[sp, 32],	->t
   14f0a: 55 0f 0c 00  cmp.eqi	t#1, 0,	->u
   14f0e: 06 f8        c.movr	zero,	->t
   14f10: d6 1f        c.movi	-1,	->a1
   14f12: f7 0f 3c e6  csel	u#1, t#1, a1,	->t
   14f16: 7a 40        c.sdi	t#1, [sp, 64]

0000000000014f18 <.LBB39_4>:
   14f18: 84 00        C.BSTART	COND, 0x14f28
   14f1a: 4a 50        c.lwi	[sp, 40],	->t
   14f1c: 1c 56        c.sext.w	t#1,	->t
   14f1e: 06 18        c.movr	zero,	->a1
   14f20: 36 1e        c.setc.ne	t#1, a1
   14f22: b2 05        C.BSTART	DIRECT, 0x14fd8
   14f24: 06 f8        c.movr	zero,	->t
   14f26: 7a 40        c.sdi	t#1, [sp, 64]

0000000000014f28 <.LBB39_6>:
   14f28: 14 01        C.BSTART	COND, 0x14f4a
   14f2a: 19 af a0 00  lwi	[sp, 40],	->u
   14f2e: b5 1f f0 3f  subiw	zero, 1023,	->t
   14f32: a5 0f 8e 07  addw	u#1, t#1,	->t
   14f36: 6a 38        c.swi	t#1, [sp, 28]
   14f38: 4a 38        c.lwi	[sp, 28],	->t
   14f3a: a5 01 0c 06  addw	t#1, zero,	->a1
   14f3e: d6 ff        c.movi	-1,	->t
   14f40: 65 40 3c 06  setc.lt	t#1, a1
   14f44: a2 04        C.BSTART	DIRECT, 0x14fd8
   14f46: 06 f8        c.movr	zero,	->t
   14f48: 7a 40        c.sdi	t#1, [sp, 64]

0000000000014f4a <.LBB39_8>:
   14f4a: a4 00        C.BSTART	COND, 0x14f5e
   14f4c: 4a 38        c.lwi	[sp, 28],	->t
   14f4e: 1c 56        c.sext.w	t#1,	->t
   14f50: 95 01 00 04  addi	zero, 64,	->a1
   14f54: 65 40 3c 06  setc.lt	t#1, a1
   14f58: 02 04        C.BSTART	DIRECT, 0x14fd8
   14f5a: d6 ff        c.movi	-1,	->t
   14f5c: 7a 40        c.sdi	t#1, [sp, 64]

0000000000014f5e <.LBB39_10>:
   14f5e: c4 02        C.BSTART	COND, 0x14fb6
   14f60: 19 bf 40 00  ldi	[sp, 32],	->u
   14f64: 15 0f 00 02  addi	zero, 32,	->u
   14f68: 1e 00 97 0f 00 00    hl.lui	1048576,	->t
   14f6e: 05 7f cc 01  sll	t#1, u#1,	->u
   14f72: 0e 00 97 0f 00 00    hl.lui	0,	->t
   14f78: 85 7f dc 01  sll	t#1, u#2,	->t
   14f7c: 85 5f dc 01  srl	t#1, u#2,	->t
   14f80: 38 c7        c.or	u#1, t#1,	->t
   14f82: b8 c7        c.or	u#3, t#1,	->t
   14f84: 7a 10        c.sdi	t#1, [sp, 16]
   14f86: 4a 38        c.lwi	[sp, 28],	->t
   14f88: 25 0f 0c 06  addw	t#1, zero,	->u
   14f8c: 95 0f 50 03  addi	zero, 53,	->t
   14f90: 65 40 8e 07  setc.lt	u#1, t#1
   14f94: 22 02        C.BSTART	DIRECT, 0x14fd8
   14f96: 5a 10        c.ldi	[sp, 16],	->t
   14f98: 19 af 70 00  lwi	[sp, 28],	->u
   14f9c: b5 1f 40 03  subiw	zero, 52,	->t
   14fa0: a5 0f 8e 07  addw	u#1, t#1,	->t
   14fa4: 15 0f 00 02  addi	zero, 32,	->u
   14fa8: 85 7f cc 01  sll	t#1, u#1,	->t
   14fac: 85 51 cc 01  srl	t#1, u#1,	->a1
   14fb0: 85 ff 3d 00  sll	t#4, a1,	->t
   14fb4: 7a 40        c.sdi	t#1, [sp, 64]

0000000000014fb6 <.LBB39_12>:
   14fb6: 12 01        C.BSTART	DIRECT, 0x14fd8
   14fb8: 5a 10        c.ldi	[sp, 16],	->t
   14fba: 19 af 70 00  lwi	[sp, 28],	->u
   14fbe: b5 0f 40 03  addiw	zero, 52,	->t
   14fc2: a5 1f cc 07  subw	t#1, u#1,	->t
   14fc6: 15 0f 00 02  addi	zero, 32,	->u
   14fca: 85 7f cc 01  sll	t#1, u#1,	->t
   14fce: 85 51 cc 01  srl	t#1, u#1,	->a1
   14fd2: 85 df 3d 00  srl	t#4, a1,	->t
   14fd6: 7a 40        c.sdi	t#1, [sp, 64]

0000000000014fd8 <.LBB39_13>:
   14fd8: 00 08        C.BSTART.STD
   14fda: 19 b1 80 00  ldi	[sp, 64],	->a0
   14fde: 41 30 a5 14  FRET.STK	[ra ~ ra], sp!, 80

0000000000014fe2 <__fixdfsi>:
   14fe2: 41 00 a5 14  FENTRY	[ra ~ ra], sp!, 80
   14fe6: 01 40 34 fe 56 51    BSTART.STD	CALL, 0x148b6, ra=.LBB40_21
   14fec: 59 30 11 0e  sdi	a0, [sp, 56]
   14ff0: 19 b1 70 00  ldi	[sp, 56],	->a0

0000000000014ff4 <.LBB40_21>:
   14ff4: a4 03        C.BSTART	COND, 0x15068
   14ff6: 59 30 11 0c  sdi	a0, [sp, 48]
   14ffa: 19 bf 60 00  ldi	[sp, 48],	->u
   14ffe: 95 0f f0 03  addi	zero, 63,	->t
   15002: 85 5f 8e 01  srl	u#1, t#1,	->t
   15006: 6a 58        c.swi	t#1, [sp, 44]
   15008: 19 bf 60 00  ldi	[sp, 48],	->u
   1500c: 95 0f 40 03  addi	zero, 52,	->t
   15010: 85 5f 8e 01  srl	u#1, t#1,	->t
   15014: 95 2f fc 7f  andi	t#1, 2047,	->t
   15018: 6a 50        c.swi	t#1, [sp, 40]
   1501a: 19 bf 60 00  ldi	[sp, 48],	->u
   1501e: 15 0f 00 02  addi	zero, 32,	->u
   15022: 0e 00 97 ff ff ff    hl.lui	1048575,	->t
   15028: 05 7f cc 01  sll	t#1, u#1,	->u
   1502c: fe ff 97 ff ff ff    hl.lui	4294967295,	->t
   15032: 85 7f dc 01  sll	t#1, u#2,	->t
   15036: 85 5f dc 01  srl	t#1, u#2,	->t
   1503a: 38 c7        c.or	u#1, t#1,	->t
   1503c: a8 c7        c.and	u#3, t#1,	->t
   1503e: 7a 20        c.sdi	t#1, [sp, 32]
   15040: 4a 50        c.lwi	[sp, 40],	->t
   15042: 25 0f 0c 06  addw	t#1, zero,	->u
   15046: 95 0f f0 7f  addi	zero, 2047,	->t
   1504a: 36 c7        c.setc.ne	u#1, t#1
   1504c: f2 0a        C.BSTART	DIRECT, 0x151aa
   1504e: 4a 58        c.lwi	[sp, 44],	->t
   15050: 1c 56        c.sext.w	t#1,	->t
   15052: 55 1f 0c 00  cmp.nei	t#1, 0,	->u
   15056: fe 7f 97 ff ff ff    hl.lui	2147483647,	->t
   1505c: 97 01 00 80  lui	524288,	->a1
   15060: f7 0f 3c e6  csel	u#1, t#1, a1,	->t
   15064: 59 20 1c 22  swi	t#1, [sp, 68]

0000000000015068 <.LBB40_2>:
   15068: 94 00        C.BSTART	COND, 0x1507a
   1506a: 4a 50        c.lwi	[sp, 40],	->t
   1506c: 1c 56        c.sext.w	t#1,	->t
   1506e: 06 18        c.movr	zero,	->a1
   15070: 36 1e        c.setc.ne	t#1, a1
   15072: c2 09        C.BSTART	DIRECT, 0x151aa
   15074: 06 f8        c.movr	zero,	->t
   15076: 59 20 1c 22  swi	t#1, [sp, 68]

000000000001507a <.LBB40_4>:
   1507a: 24 01        C.BSTART	COND, 0x1509e
   1507c: 19 af a0 00  lwi	[sp, 40],	->u
   15080: b5 1f f0 3f  subiw	zero, 1023,	->t
   15084: a5 0f 8e 07  addw	u#1, t#1,	->t
   15088: 6a 38        c.swi	t#1, [sp, 28]
   1508a: 4a 38        c.lwi	[sp, 28],	->t
   1508c: a5 01 0c 06  addw	t#1, zero,	->a1
   15090: d6 ff        c.movi	-1,	->t
   15092: 65 40 3c 06  setc.lt	t#1, a1
   15096: a2 08        C.BSTART	DIRECT, 0x151aa
   15098: 06 f8        c.movr	zero,	->t
   1509a: 59 20 1c 22  swi	t#1, [sp, 68]

000000000001509e <.LBB40_6>:
   1509e: 24 01        C.BSTART	COND, 0x150c2
   150a0: 4a 38        c.lwi	[sp, 28],	->t
   150a2: 75 40 fc 01  setc.lti	t#1, 31
   150a6: 22 08        C.BSTART	DIRECT, 0x151aa
   150a8: 4a 58        c.lwi	[sp, 44],	->t
   150aa: 1c 56        c.sext.w	t#1,	->t
   150ac: 55 1f 0c 00  cmp.nei	t#1, 0,	->u
   150b0: fe 7f 97 ff ff ff    hl.lui	2147483647,	->t
   150b6: 97 01 00 80  lui	524288,	->a1
   150ba: f7 0f 3c e6  csel	u#1, t#1, a1,	->t
   150be: 59 20 1c 22  swi	t#1, [sp, 68]

00000000000150c2 <.LBB40_8>:
   150c2: d4 02        C.BSTART	COND, 0x1511c
   150c4: 19 bf 40 00  ldi	[sp, 32],	->u
   150c8: 15 0f 00 02  addi	zero, 32,	->u
   150cc: 1e 00 97 0f 00 00    hl.lui	1048576,	->t
   150d2: 05 7f cc 01  sll	t#1, u#1,	->u
   150d6: 0e 00 97 0f 00 00    hl.lui	0,	->t
   150dc: 85 7f dc 01  sll	t#1, u#2,	->t
   150e0: 85 5f dc 01  srl	t#1, u#2,	->t
   150e4: 38 c7        c.or	u#1, t#1,	->t
   150e6: b8 c7        c.or	u#3, t#1,	->t
   150e8: 7a 10        c.sdi	t#1, [sp, 16]
   150ea: 4a 38        c.lwi	[sp, 28],	->t
   150ec: 25 0f 0c 06  addw	t#1, zero,	->u
   150f0: 95 0f 50 03  addi	zero, 53,	->t
   150f4: 65 40 8e 07  setc.lt	u#1, t#1
   150f8: 42 02        C.BSTART	DIRECT, 0x15140
   150fa: 19 bf 20 00  ldi	[sp, 16],	->u
   150fe: 19 af 70 00  lwi	[sp, 28],	->u
   15102: b5 1f 40 03  subiw	zero, 52,	->t
   15106: a5 0f 8e 07  addw	u#1, t#1,	->t
   1510a: 15 0f 00 02  addi	zero, 32,	->u
   1510e: 85 7f cc 01  sll	t#1, u#1,	->t
   15112: 85 5f cc 01  srl	t#1, u#1,	->t
   15116: 85 7f 8f 01  sll	u#3, t#1,	->t
   1511a: 7a 08        c.sdi	t#1, [sp, 8]

000000000001511c <.LBB40_10>:
   1511c: 22 01        C.BSTART	DIRECT, 0x15140
   1511e: 19 bf 20 00  ldi	[sp, 16],	->u
   15122: 19 af 70 00  lwi	[sp, 28],	->u
   15126: b5 0f 40 03  addiw	zero, 52,	->t
   1512a: a5 1f cc 07  subw	t#1, u#1,	->t
   1512e: 15 0f 00 02  addi	zero, 32,	->u
   15132: 85 7f cc 01  sll	t#1, u#1,	->t
   15136: 85 5f cc 01  srl	t#1, u#1,	->t
   1513a: 85 5f 8f 01  srl	u#3, t#1,	->t
   1513e: 7a 08        c.sdi	t#1, [sp, 8]

0000000000015140 <.LBB40_11>:
   15140: e4 01        C.BSTART	COND, 0x1517c
   15142: 4a 58        c.lwi	[sp, 44],	->t
   15144: 75 00 0c 00  setc.eqi	t#1, 0
   15148: 24 01        C.BSTART	COND, 0x1516c
   1514a: 5a 08        c.ldi	[sp, 8],	->t
   1514c: 15 0f 00 02  addi	zero, 32,	->u
   15150: 0e 80 97 0f 00 00    hl.lui	2147483648,	->t
   15156: 85 7f cc 01  sll	t#1, u#1,	->t
   1515a: 85 51 cc 01  srl	t#1, u#1,	->a1
   1515e: 65 60 3d 06  setc.ltu	t#3, a1
   15162: 42 02        C.BSTART	DIRECT, 0x151aa
   15164: 97 0f 00 80  lui	524288,	->t
   15168: 59 20 1c 22  swi	t#1, [sp, 68]

000000000001516c <.LBB40_14>:
   1516c: f2 01        C.BSTART	DIRECT, 0x151aa
   1516e: 99 a1 20 00  lwi	[sp, 8],	->a1
   15172: 06 f8        c.movr	zero,	->t
   15174: a5 1f 3c 06  subw	t#1, a1,	->t
   15178: 59 20 1c 22  swi	t#1, [sp, 68]

000000000001517c <.LBB40_15>:
   1517c: 34 01        C.BSTART	COND, 0x151a2
   1517e: 5a 08        c.ldi	[sp, 8],	->t
   15180: 15 0f 00 02  addi	zero, 32,	->u
   15184: 0e 80 97 0f 00 00    hl.lui	2147483648,	->t
   1518a: 85 7f cc 01  sll	t#1, u#1,	->t
   1518e: 85 51 cc 01  srl	t#1, u#1,	->a1
   15192: 65 60 3d 06  setc.ltu	t#3, a1
   15196: a2 00        C.BSTART	DIRECT, 0x151aa
   15198: fe 7f 97 ff ff ff    hl.lui	2147483647,	->t
   1519e: 59 20 1c 22  swi	t#1, [sp, 68]

00000000000151a2 <.LBB40_17>:
   151a2: 42 00        C.BSTART	DIRECT, 0x151aa
   151a4: 5a 08        c.ldi	[sp, 8],	->t
   151a6: 59 20 1c 22  swi	t#1, [sp, 68]

00000000000151aa <.LBB40_18>:
   151aa: 00 08        C.BSTART.STD
   151ac: 19 a1 10 01  lwi	[sp, 68],	->a0
   151b0: 41 30 a5 14  FRET.STK	[ra ~ ra], sp!, 80

00000000000151b4 <__floatsidf>:
   151b4: 41 00 a5 14  FENTRY	[ra ~ ra], sp!, 80
   151b8: a4 00        C.BSTART	COND, 0x151cc
   151ba: 59 20 11 1e  swi	a0, [sp, 60]
   151be: 4a 78        c.lwi	[sp, 60],	->t
   151c0: 1c 56        c.sext.w	t#1,	->t
   151c2: 06 18        c.movr	zero,	->a1
   151c4: 36 1e        c.setc.ne	t#1, a1
   151c6: a2 06        C.BSTART	DIRECT, 0x1529a
   151c8: 06 f8        c.movr	zero,	->t
   151ca: 7a 40        c.sdi	t#1, [sp, 64]

00000000000151cc <.LBB41_2>:
   151cc: e4 00        C.BSTART	COND, 0x151e8
   151ce: 4a 78        c.lwi	[sp, 60],	->t
   151d0: b5 5f fc 01  srliw	t#1, 31,	->t
   151d4: 6a 70        c.swi	t#1, [sp, 56]
   151d6: 4a 70        c.lwi	[sp, 56],	->t
   151d8: 75 00 0c 00  setc.eqi	t#1, 0
   151dc: 92 00        C.BSTART	DIRECT, 0x151ee
   151de: 19 af f0 00  lwi	[sp, 60],	->u
   151e2: 06 f8        c.movr	zero,	->t
   151e4: 18 e6        c.sub	t#1, u#1,	->t
   151e6: 7a 08        c.sdi	t#1, [sp, 8]

00000000000151e8 <.LBB41_4>:
   151e8: 32 00        C.BSTART	DIRECT, 0x151ee
   151ea: 4a 78        c.lwi	[sp, 60],	->t
   151ec: 7a 08        c.sdi	t#1, [sp, 8]

00000000000151ee <.LBB41_5>:
   151ee: 01 c0 2d 00 d6 51    BSTART.STD	CALL, 0x152a4, ra=.LBB41_9
   151f4: 19 b1 10 00  ldi	[sp, 8],	->a0
   151f8: 59 30 11 0c  sdi	a0, [sp, 48]
   151fc: 19 b1 60 00  ldi	[sp, 48],	->a0

0000000000015200 <.LBB41_9>:
   15200: 01 40 b3 fd 07 85 04 00      BSTART.STD	CALL, 0x148cc, ra=.LBB41_10
   15208: 59 20 11 16  swi	a0, [sp, 44]
   1520c: 19 a1 b0 00  lwi	[sp, 44],	->a0
   15210: b5 01 f0 3f  addiw	zero, 1023,	->a1
   15214: 25 01 31 06  addw	a0, a1,	->a0
   15218: 59 20 11 14  swi	a0, [sp, 40]
   1521c: 19 b1 60 00  ldi	[sp, 48],	->a0
   15220: 19 a2 b0 00  lwi	[sp, 44],	->a2
   15224: b5 01 40 03  addiw	zero, 52,	->a1
   15228: a5 91 41 06  subw	a1, a2,	->a1
   1522c: 95 02 00 02  addi	zero, 32,	->a3
   15230: 85 f1 51 00  sll	a1, a3,	->a1
   15234: 85 d1 51 00  srl	a1, a3,	->a1
   15238: 05 71 31 00  sll	a0, a1,	->a0
   1523c: 59 30 11 08  sdi	a0, [sp, 32]
   15240: 19 b1 40 00  ldi	[sp, 32],	->a0
   15244: 0e 00 97 f1 ff ff    hl.lui	1048575,	->a1
   1524a: 85 f1 51 00  sll	a1, a3,	->a1
   1524e: fe ff 17 f2 ff ff    hl.lui	4294967295,	->a2
   15254: 05 72 52 00  sll	a2, a3,	->a2
   15258: 05 52 52 00  srl	a2, a3,	->a2
   1525c: 85 b1 41 06  or	a1, a2,	->a1
   15260: 05 21 31 06  and	a0, a1,	->a0
   15264: 59 30 11 06  sdi	a0, [sp, 24]
   15268: 19 a1 e0 00  lwi	[sp, 56],	->a0
   1526c: 95 01 f0 03  addi	zero, 63,	->a1
   15270: 05 71 31 00  sll	a0, a1,	->a0
   15274: 99 a1 a0 00  lwi	[sp, 40],	->a1
   15278: 15 02 40 03  addi	zero, 52,	->a2
   1527c: 85 f1 41 00  sll	a1, a2,	->a1
   15280: 05 31 31 06  or	a0, a1,	->a0
   15284: 99 b1 30 00  ldi	[sp, 24],	->a1
   15288: 05 31 31 06  or	a0, a1,	->a0
   1528c: 59 30 11 04  sdi	a0, [sp, 16]
   15290: 19 b1 20 00  ldi	[sp, 16],	->a0

0000000000015294 <.LBB41_10>:
   15294: 32 00        C.BSTART	DIRECT, 0x1529a
   15296: 59 30 11 10  sdi	a0, [sp, 64]

000000000001529a <.LBB41_6>:
   1529a: 00 08        C.BSTART.STD
   1529c: 19 b1 80 00  ldi	[sp, 64],	->a0
   152a0: 41 30 a5 14  FRET.STK	[ra ~ ra], sp!, 80

00000000000152a4 <u64_msb_index>:
   152a4: 41 00 a5 0a  FENTRY	[ra ~ ra], sp!, 40
   152a8: 62 00        C.BSTART	DIRECT, 0x152b4
   152aa: 59 30 11 06  sdi	a0, [sp, 24]
   152ae: b5 0f f0 03  addiw	zero, 63,	->t
   152b2: 6a 28        c.swi	t#1, [sp, 20]

00000000000152b4 <.LBB42_1>:
   152b4: 04 01        C.BSTART	COND, 0x152d4
   152b6: 06 f0        c.movr	zero,	->u
   152b8: 4a 28        c.lwi	[sp, 20],	->t
   152ba: 75 40 1c 00  setc.lti	t#1, 1
   152be: 59 30 1e 02  sdi	u#1, [sp, 8]
   152c2: 92 00        C.BSTART	DIRECT, 0x152d4
   152c4: 19 bf 30 00  ldi	[sp, 24],	->u
   152c8: 99 ef 50 00  lwui	[sp, 20],	->t
   152cc: 85 5f 8e 01  srl	u#1, t#1,	->t
   152d0: 2c 00        c.cmp.eqi	0,	->t
   152d2: 7a 08        c.sdi	t#1, [sp, 8]

00000000000152d4 <.LBB42_3>:
   152d4: d4 00        C.BSTART	COND, 0x152ee
   152d6: 5a 08        c.ldi	[sp, 8],	->t
   152d8: 95 2f 1c 00  andi	t#1, 1,	->t
   152dc: 06 18        c.movr	zero,	->a1
   152de: 26 1e        c.setc.eq	t#1, a1
   152e0: a2 fe        C.BSTART	DIRECT, 0x152b4
   152e2: 19 af 50 00  lwi	[sp, 20],	->u
   152e6: d6 ff        c.movi	-1,	->t
   152e8: a5 0f 8e 07  addw	u#1, t#1,	->t
   152ec: 6a 28        c.swi	t#1, [sp, 20]

00000000000152ee <.LBB42_5>:
   152ee: 00 08        C.BSTART.STD
   152f0: 19 a1 50 00  lwi	[sp, 20],	->a0
   152f4: 41 30 a5 0a  FRET.STK	[ra ~ ra], sp!, 40

00000000000152f8 <__floatundidf>:
   152f8: 41 00 a5 18  FENTRY	[ra ~ ra], sp!, 96
   152fc: 94 00        C.BSTART	COND, 0x1530e
   152fe: 59 30 11 12  sdi	a0, [sp, 72]
   15302: 5a 48        c.ldi	[sp, 72],	->t
   15304: 06 18        c.movr	zero,	->a1
   15306: 36 1e        c.setc.ne	t#1, a1
   15308: 72 0b        C.BSTART	DIRECT, 0x15476
   1530a: 06 f8        c.movr	zero,	->t
   1530c: 7a 50        c.sdi	t#1, [sp, 80]

000000000001530e <.LBB43_2>:
   1530e: 01 c0 e5 ff d6 50    BSTART.STD	CALL, 0x152a4, ra=.LBB43_16
   15314: 19 b1 90 00  ldi	[sp, 72],	->a0

0000000000015318 <.LBB43_16>:
   15318: 54 02        C.BSTART	COND, 0x15362
   1531a: 59 20 11 22  swi	a0, [sp, 68]
   1531e: 19 af 10 01  lwi	[sp, 68],	->u
   15322: b5 0f f0 3f  addiw	zero, 1023,	->t
   15326: a5 0f 8e 07  addw	u#1, t#1,	->t
   1532a: 59 20 1c 20  swi	t#1, [sp, 64]
   1532e: 99 af 10 01  lwi	[sp, 68],	->t
   15332: 25 0f 0c 06  addw	t#1, zero,	->u
   15336: 95 0f 40 03  addi	zero, 52,	->t
   1533a: 65 40 cc 07  setc.lt	t#1, u#1
   1533e: 12 07        C.BSTART	DIRECT, 0x15420
   15340: 19 bf 90 00  ldi	[sp, 72],	->u
   15344: 19 af 10 01  lwi	[sp, 68],	->u
   15348: b5 0f 40 03  addiw	zero, 52,	->t
   1534c: a5 1f cc 07  subw	t#1, u#1,	->t
   15350: 15 0f 00 02  addi	zero, 32,	->u
   15354: 85 7f cc 01  sll	t#1, u#1,	->t
   15358: 85 5f cc 01  srl	t#1, u#1,	->t
   1535c: 85 7f 8f 01  sll	u#3, t#1,	->t
   15360: 7a 38        c.sdi	t#1, [sp, 56]

0000000000015362 <.LBB43_4>:
   15362: b4 03        C.BSTART	COND, 0x153d8
   15364: 19 af 10 01  lwi	[sp, 68],	->u
   15368: b5 1f 40 03  subiw	zero, 52,	->t
   1536c: a5 0f 8e 07  addw	u#1, t#1,	->t
   15370: 6a 68        c.swi	t#1, [sp, 52]
   15372: 99 ef d0 00  lwui	[sp, 52],	->t
   15376: 56 10        c.movi	1,	->a0
   15378: 05 7f 81 01  sll	a0, t#1,	->u
   1537c: d6 ff        c.movi	-1,	->t
   1537e: 08 c7        c.add	u#1, t#1,	->t
   15380: 7a 28        c.sdi	t#1, [sp, 40]
   15382: 19 bf 90 00  ldi	[sp, 72],	->u
   15386: 5a 28        c.ldi	[sp, 40],	->t
   15388: 28 c7        c.and	u#1, t#1,	->t
   1538a: 7a 20        c.sdi	t#1, [sp, 32]
   1538c: 19 af d0 00  lwi	[sp, 52],	->u
   15390: d6 ff        c.movi	-1,	->t
   15392: a5 0f 8e 07  addw	u#1, t#1,	->t
   15396: 15 0f 00 02  addi	zero, 32,	->u
   1539a: 85 7f cc 01  sll	t#1, u#1,	->t
   1539e: 85 5f cc 01  srl	t#1, u#1,	->t
   153a2: 85 7f 81 01  sll	a0, t#1,	->t
   153a6: 7a 18        c.sdi	t#1, [sp, 24]
   153a8: 19 bf 90 00  ldi	[sp, 72],	->u
   153ac: 99 ef d0 00  lwui	[sp, 52],	->t
   153b0: 85 5f 8e 01  srl	u#1, t#1,	->t
   153b4: 7a 38        c.sdi	t#1, [sp, 56]
   153b6: 19 bf 40 00  ldi	[sp, 32],	->u
   153ba: 5a 18        c.ldi	[sp, 24],	->t
   153bc: 65 60 cc 07  setc.ltu	t#1, u#1
   153c0: 04 01        C.BSTART	COND, 0x153e0
   153c2: 19 bf 40 00  ldi	[sp, 32],	->u
   153c6: 5a 18        c.ldi	[sp, 24],	->t
   153c8: 36 c7        c.setc.ne	u#1, t#1
   153ca: b4 00        C.BSTART	COND, 0x153e0
   153cc: 99 cf 80 03  lbui	[sp, 56],	->t
   153d0: b5 2f 1c 00  andiw	t#1, 1,	->t
   153d4: 75 00 0c 00  setc.eqi	t#1, 0

00000000000153d8 <.LBB43_7>:
   153d8: 42 00        C.BSTART	DIRECT, 0x153e0
   153da: 5a 38        c.ldi	[sp, 56],	->t
   153dc: 0c 0e        c.addi	t#1, 1,	->t
   153de: 7a 38        c.sdi	t#1, [sp, 56]

00000000000153e0 <.LBB43_8>:
   153e0: f4 01        C.BSTART	COND, 0x1541e
   153e2: 19 bf 70 00  ldi	[sp, 56],	->u
   153e6: 15 0f 00 02  addi	zero, 32,	->u
   153ea: 2e 00 97 0f 00 00    hl.lui	2097152,	->t
   153f0: 05 7f cc 01  sll	t#1, u#1,	->u
   153f4: 0e 00 97 0f 00 00    hl.lui	0,	->t
   153fa: 85 7f dc 01  sll	t#1, u#2,	->t
   153fe: 85 5f dc 01  srl	t#1, u#2,	->t
   15402: 38 c7        c.or	u#1, t#1,	->t
   15404: b6 c7        c.setc.ne	u#3, t#1
   15406: c2 00        C.BSTART	DIRECT, 0x1541e
   15408: 5a 38        c.ldi	[sp, 56],	->t
   1540a: 95 5f 1c 00  srli	t#1, 1,	->t
   1540e: 7a 38        c.sdi	t#1, [sp, 56]
   15410: 19 af 00 01  lwi	[sp, 64],	->u
   15414: 56 f8        c.movi	1,	->t
   15416: a5 0f 8e 07  addw	u#1, t#1,	->t
   1541a: 59 20 1c 20  swi	t#1, [sp, 64]

000000000001541e <.LBB43_10>:
   1541e: 12 00        C.BSTART	DIRECT, 0x15420

0000000000015420 <.LBB43_11>:
   15420: 01 40 2b fd 07 65 02 00      BSTART.STD	CALL, 0x148cc, ra=.LBB43_15
   15428: 19 b1 70 00  ldi	[sp, 56],	->a0
   1542c: 95 02 00 02  addi	zero, 32,	->a3
   15430: 0e 00 97 f1 ff ff    hl.lui	1048575,	->a1
   15436: 85 f1 51 00  sll	a1, a3,	->a1
   1543a: fe ff 17 f2 ff ff    hl.lui	4294967295,	->a2
   15440: 05 72 52 00  sll	a2, a3,	->a2
   15444: 05 52 52 00  srl	a2, a3,	->a2
   15448: 85 b1 41 06  or	a1, a2,	->a1
   1544c: 05 21 31 06  and	a0, a1,	->a0
   15450: 59 30 11 04  sdi	a0, [sp, 16]
   15454: 19 a1 00 01  lwi	[sp, 64],	->a0
   15458: 95 01 40 03  addi	zero, 52,	->a1
   1545c: 05 71 31 00  sll	a0, a1,	->a0
   15460: 99 b1 20 00  ldi	[sp, 16],	->a1
   15464: 05 31 31 06  or	a0, a1,	->a0
   15468: 59 30 11 02  sdi	a0, [sp, 8]
   1546c: 19 b1 10 00  ldi	[sp, 8],	->a0

0000000000015470 <.LBB43_15>:
   15470: 32 00        C.BSTART	DIRECT, 0x15476
   15472: 59 30 11 14  sdi	a0, [sp, 80]

0000000000015476 <.LBB43_12>:
   15476: 00 08        C.BSTART.STD
   15478: 19 b1 a0 00  ldi	[sp, 80],	->a0
   1547c: 41 30 a5 18  FRET.STK	[ra ~ ra], sp!, 96

0000000000015480 <__floatdidf>:
   15480: 41 00 a5 10  FENTRY	[ra ~ ra], sp!, 64
   15484: 94 00        C.BSTART	COND, 0x15496
   15486: 59 30 11 0a  sdi	a0, [sp, 40]
   1548a: 5a 28        c.ldi	[sp, 40],	->t
   1548c: 06 18        c.movr	zero,	->a1
   1548e: 36 1e        c.setc.ne	t#1, a1
   15490: 22 04        C.BSTART	DIRECT, 0x15514
   15492: 06 f8        c.movr	zero,	->t
   15494: 7a 30        c.sdi	t#1, [sp, 48]

0000000000015496 <.LBB44_2>:
   15496: 34 01        C.BSTART	COND, 0x154bc
   15498: 19 bf 50 00  ldi	[sp, 40],	->u
   1549c: 95 0f f0 03  addi	zero, 63,	->t
   154a0: 85 5f 8e 01  srl	u#1, t#1,	->t
   154a4: 6a 48        c.swi	t#1, [sp, 36]
   154a6: 4a 48        c.lwi	[sp, 36],	->t
   154a8: 25 0f 0c 06  addw	t#1, zero,	->u
   154ac: 06 f8        c.movr	zero,	->t
   154ae: 26 c7        c.setc.eq	u#1, t#1
   154b0: 92 00        C.BSTART	DIRECT, 0x154c2
   154b2: 19 bf 50 00  ldi	[sp, 40],	->u
   154b6: 06 f8        c.movr	zero,	->t
   154b8: 18 e6        c.sub	t#1, u#1,	->t
   154ba: 7a 18        c.sdi	t#1, [sp, 24]

00000000000154bc <.LBB44_4>:
   154bc: 32 00        C.BSTART	DIRECT, 0x154c2
   154be: 5a 28        c.ldi	[sp, 40],	->t
   154c0: 7a 18        c.sdi	t#1, [sp, 24]

00000000000154c2 <.LBB44_5>:
   154c2: fe ff 01 c0 8d ff d6 50      HL.BSTART.STD	CALL, 0x152f8, ra=.LBB44_12
   154ca: 19 b1 30 00  ldi	[sp, 24],	->a0

00000000000154ce <.LBB44_12>:
   154ce: d4 01        C.BSTART	COND, 0x15508
   154d0: 59 30 11 04  sdi	a0, [sp, 16]
   154d4: 4a 48        c.lwi	[sp, 36],	->t
   154d6: 1c 56        c.sext.w	t#1,	->t
   154d8: 06 18        c.movr	zero,	->a1
   154da: 26 1e        c.setc.eq	t#1, a1
   154dc: 92 01        C.BSTART	DIRECT, 0x1550e
   154de: 19 bf 20 00  ldi	[sp, 16],	->u
   154e2: 15 0f 00 02  addi	zero, 32,	->u
   154e6: 0e 80 97 0f 00 00    hl.lui	2147483648,	->t
   154ec: 05 7f cc 01  sll	t#1, u#1,	->u
   154f0: 0e 00 97 0f 00 00    hl.lui	0,	->t
   154f6: 85 7f dc 01  sll	t#1, u#2,	->t
   154fa: 85 5f dc 01  srl	t#1, u#2,	->t
   154fe: 85 31 8e 07  or	u#1, t#1,	->a1
   15502: 85 4f 3f 06  xor	u#3, a1,	->t
   15506: 7a 08        c.sdi	t#1, [sp, 8]

0000000000015508 <.LBB44_7>:
   15508: 32 00        C.BSTART	DIRECT, 0x1550e
   1550a: 5a 10        c.ldi	[sp, 16],	->t
   1550c: 7a 08        c.sdi	t#1, [sp, 8]

000000000001550e <.LBB44_8>:
   1550e: 32 00        C.BSTART	DIRECT, 0x15514
   15510: 5a 08        c.ldi	[sp, 8],	->t
   15512: 7a 30        c.sdi	t#1, [sp, 48]

0000000000015514 <.LBB44_9>:
   15514: 00 08        C.BSTART.STD
   15516: 19 b1 60 00  ldi	[sp, 48],	->a0
   1551a: 41 30 a5 10  FRET.STK	[ra ~ ra], sp!, 64

000000000001551e <__floatunsidf>:
   1551e: 41 00 a5 08  FENTRY	[ra ~ ra], sp!, 32
   15522: fe ff 01 c0 75 ff 56 51      HL.BSTART.STD	CALL, 0x152f8, ra=.LBB45_2
   1552a: 59 20 11 0a  swi	a0, [sp, 20]
   1552e: 19 e1 50 00  lwui	[sp, 20],	->a0

0000000000015532 <.LBB45_2>:
   15532: 41 30 a5 08  FRET.STK	[ra ~ ra], sp!, 32

0000000000015536 <f64_is_zero>:
   15536: 41 00 a5 06  FENTRY	[ra ~ ra], sp!, 24
   1553a: 00 08        C.BSTART.STD
   1553c: 59 30 11 02  sdi	a0, [sp, 8]
   15540: 19 bf 10 00  ldi	[sp, 8],	->u
   15544: 15 0f 00 02  addi	zero, 32,	->u
   15548: fe 7f 97 ff ff ff    hl.lui	2147483647,	->t
   1554e: 05 7f cc 01  sll	t#1, u#1,	->u
   15552: fe ff 97 ff ff ff    hl.lui	4294967295,	->t
   15558: 85 7f dc 01  sll	t#1, u#2,	->t
   1555c: 85 5f dc 01  srl	t#1, u#2,	->t
   15560: 38 c7        c.or	u#1, t#1,	->t
   15562: a8 c7        c.and	u#3, t#1,	->t
   15564: 55 01 0c 00  cmp.eqi	t#1, 0,	->a0
   15568: 41 30 a5 06  FRET.STK	[ra ~ ra], sp!, 24
